
build/final.elf:     file format elf32-littlearm


Disassembly of section .text:

c1080000 <_start>:
c1080000:	e59f0068 	ldr	r0, [pc, #104]	; c1080070 <Loop+0x1c>
c1080004:	e321f0db 	msr	CPSR_c, #219	; 0xdb
c1080008:	e1a0d000 	mov	sp, r0
c108000c:	e2400008 	sub	r0, r0, #8
c1080010:	e321f0d7 	msr	CPSR_c, #215	; 0xd7
c1080014:	e1a0d000 	mov	sp, r0
c1080018:	e2400008 	sub	r0, r0, #8
c108001c:	e321f0d1 	msr	CPSR_c, #209	; 0xd1
c1080020:	e1a0d000 	mov	sp, r0
c1080024:	e2400008 	sub	r0, r0, #8
c1080028:	e321f0d2 	msr	CPSR_c, #210	; 0xd2
c108002c:	e1a0d000 	mov	sp, r0
c1080030:	e2400c05 	sub	r0, r0, #1280	; 0x500
c1080034:	e321f0d3 	msr	CPSR_c, #211	; 0xd3
c1080038:	e1a0d000 	mov	sp, r0
c108003c:	e2400008 	sub	r0, r0, #8
c1080040:	e321f0df 	msr	CPSR_c, #223	; 0xdf
c1080044:	e1a0d000 	mov	sp, r0

c1080048 <Clear_Bss_Section>:
c1080048:	e59f0024 	ldr	r0, [pc, #36]	; c1080074 <Loop+0x20>
c108004c:	e59f1024 	ldr	r1, [pc, #36]	; c1080078 <Loop+0x24>
c1080050:	e3a02000 	mov	r2, #0

c1080054 <Loop>:
c1080054:	e4802004 	str	r2, [r0], #4
c1080058:	e1500001 	cmp	r0, r1
c108005c:	dafffffc 	ble	c1080054 <Loop>
c1080060:	e59fa014 	ldr	sl, [pc, #20]	; c108007c <Loop+0x28>
c1080064:	e1a0e00f 	mov	lr, pc
c1080068:	e12fff1a 	bx	sl
c108006c:	e24ff008 	sub	pc, pc, #8
c1080070:	c3fffffc 	.word	0xc3fffffc
c1080074:	c110f824 	.word	0xc110f824
c1080078:	c110f828 	.word	0xc110f828
c108007c:	c1080624 	.word	0xc1080624

c1080080 <load_container_image>:
c1080080:	e92d4800 	push	{fp, lr}
c1080084:	e28db004 	add	fp, sp, #4
c1080088:	e24dd020 	sub	sp, sp, #32
c108008c:	e50b0020 	str	r0, [fp, #-32]
c1080090:	e51b3020 	ldr	r3, [fp, #-32]
c1080094:	e50b3018 	str	r3, [fp, #-24]
c1080098:	e3a03000 	mov	r3, #0
c108009c:	e50b3010 	str	r3, [fp, #-16]
c10800a0:	e51b0018 	ldr	r0, [fp, #-24]
c10800a4:	eb000745 	bl	c1081dc0 <elf32_checkFile>
c10800a8:	e1a03000 	mov	r3, r0
c10800ac:	e3530000 	cmp	r3, #0
c10800b0:	aa000004 	bge	c10800c8 <load_container_image+0x48>
c10800b4:	e59f00d4 	ldr	r0, [pc, #212]	; c1080190 <load_container_image+0x110>
c10800b8:	e59f10d4 	ldr	r1, [pc, #212]	; c1080194 <load_container_image+0x114>
c10800bc:	eb000fa8 	bl	c1083f64 <printf>
c10800c0:	e3e03000 	mvn	r3, #0
c10800c4:	ea00002e 	b	c1080184 <load_container_image+0x104>
c10800c8:	e51b0018 	ldr	r0, [fp, #-24]
c10800cc:	eb00075c 	bl	c1081e44 <elf32_getNumSections>
c10800d0:	e1a03000 	mov	r3, r0
c10800d4:	e50b3014 	str	r3, [fp, #-20]
c10800d8:	e3a03000 	mov	r3, #0
c10800dc:	e50b300c 	str	r3, [fp, #-12]
c10800e0:	ea00001f 	b	c1080164 <load_container_image+0xe4>
c10800e4:	e51b0018 	ldr	r0, [fp, #-24]
c10800e8:	e51b100c 	ldr	r1, [fp, #-12]
c10800ec:	eb000790 	bl	c1081f34 <elf32_getSectionName>
c10800f0:	e1a03000 	mov	r3, r0
c10800f4:	e50b3008 	str	r3, [fp, #-8]
c10800f8:	e59f0098 	ldr	r0, [pc, #152]	; c1080198 <load_container_image+0x118>
c10800fc:	eb000fd1 	bl	c1084048 <strlen>
c1080100:	e1a03000 	mov	r3, r0
c1080104:	e51b0008 	ldr	r0, [fp, #-8]
c1080108:	e59f1088 	ldr	r1, [pc, #136]	; c1080198 <load_container_image+0x118>
c108010c:	e1a02003 	mov	r2, r3
c1080110:	eb000fe1 	bl	c108409c <strncmp>
c1080114:	e1a03000 	mov	r3, r0
c1080118:	e3530000 	cmp	r3, #0
c108011c:	1a00000d 	bne	c1080158 <load_container_image+0xd8>
c1080120:	e59f0074 	ldr	r0, [pc, #116]	; c108019c <load_container_image+0x11c>
c1080124:	e51b1008 	ldr	r1, [fp, #-8]
c1080128:	eb000f8d 	bl	c1083f64 <printf>
c108012c:	e51b0018 	ldr	r0, [fp, #-24]
c1080130:	e51b100c 	ldr	r1, [fp, #-12]
c1080134:	eb0007c9 	bl	c1082060 <elf32_getSection>
c1080138:	e1a03000 	mov	r3, r0
c108013c:	e24b201c 	sub	r2, fp, #28
c1080140:	e1a00002 	mov	r0, r2
c1080144:	e1a01003 	mov	r1, r3
c1080148:	eb00005d 	bl	c10802c4 <load_elf_image>
c108014c:	e51b3010 	ldr	r3, [fp, #-16]
c1080150:	e2833001 	add	r3, r3, #1
c1080154:	e50b3010 	str	r3, [fp, #-16]
c1080158:	e51b300c 	ldr	r3, [fp, #-12]
c108015c:	e2833001 	add	r3, r3, #1
c1080160:	e50b300c 	str	r3, [fp, #-12]
c1080164:	e51b200c 	ldr	r2, [fp, #-12]
c1080168:	e51b3014 	ldr	r3, [fp, #-20]
c108016c:	e1520003 	cmp	r2, r3
c1080170:	baffffdb 	blt	c10800e4 <load_container_image+0x64>
c1080174:	e59f0024 	ldr	r0, [pc, #36]	; c10801a0 <load_container_image+0x120>
c1080178:	e51b1010 	ldr	r1, [fp, #-16]
c108017c:	eb000f78 	bl	c1083f64 <printf>
c1080180:	e3a03000 	mov	r3, #0
c1080184:	e1a00003 	mov	r0, r3
c1080188:	e24bd004 	sub	sp, fp, #4
c108018c:	e8bd8800 	pop	{fp, pc}
c1080190:	c1085fbc 	.word	0xc1085fbc
c1080194:	c10861d4 	.word	0xc10861d4
c1080198:	c1085fd8 	.word	0xc1085fd8
c108019c:	c1085fe0 	.word	0xc1085fe0
c10801a0:	c1086000 	.word	0xc1086000

c10801a4 <load_container_images>:
c10801a4:	e92d4800 	push	{fp, lr}
c10801a8:	e28db004 	add	fp, sp, #4
c10801ac:	e24dd020 	sub	sp, sp, #32
c10801b0:	e50b0020 	str	r0, [fp, #-32]
c10801b4:	e50b1024 	str	r1, [fp, #-36]	; 0x24
c10801b8:	e51b3020 	ldr	r3, [fp, #-32]
c10801bc:	e50b3018 	str	r3, [fp, #-24]
c10801c0:	e3a03000 	mov	r3, #0
c10801c4:	e50b3014 	str	r3, [fp, #-20]
c10801c8:	e3a03000 	mov	r3, #0
c10801cc:	e50b3010 	str	r3, [fp, #-16]
c10801d0:	e51b0018 	ldr	r0, [fp, #-24]
c10801d4:	eb0006f9 	bl	c1081dc0 <elf32_checkFile>
c10801d8:	e1a03000 	mov	r3, r0
c10801dc:	e3530000 	cmp	r3, #0
c10801e0:	aa000003 	bge	c10801f4 <load_container_images+0x50>
c10801e4:	e59f00c8 	ldr	r0, [pc, #200]	; c10802b4 <load_container_images+0x110>
c10801e8:	eb000f5d 	bl	c1083f64 <printf>
c10801ec:	e3e03000 	mvn	r3, #0
c10801f0:	ea00002c 	b	c10802a8 <load_container_images+0x104>
c10801f4:	e51b0018 	ldr	r0, [fp, #-24]
c10801f8:	eb000711 	bl	c1081e44 <elf32_getNumSections>
c10801fc:	e1a03000 	mov	r3, r0
c1080200:	e50b3014 	str	r3, [fp, #-20]
c1080204:	e3a03000 	mov	r3, #0
c1080208:	e50b300c 	str	r3, [fp, #-12]
c108020c:	ea00001d 	b	c1080288 <load_container_images+0xe4>
c1080210:	e51b0018 	ldr	r0, [fp, #-24]
c1080214:	e51b100c 	ldr	r1, [fp, #-12]
c1080218:	eb000745 	bl	c1081f34 <elf32_getSectionName>
c108021c:	e1a03000 	mov	r3, r0
c1080220:	e50b3008 	str	r3, [fp, #-8]
c1080224:	e59f008c 	ldr	r0, [pc, #140]	; c10802b8 <load_container_images+0x114>
c1080228:	eb000f86 	bl	c1084048 <strlen>
c108022c:	e1a03000 	mov	r3, r0
c1080230:	e51b0008 	ldr	r0, [fp, #-8]
c1080234:	e59f107c 	ldr	r1, [pc, #124]	; c10802b8 <load_container_images+0x114>
c1080238:	e1a02003 	mov	r2, r3
c108023c:	eb000f96 	bl	c108409c <strncmp>
c1080240:	e1a03000 	mov	r3, r0
c1080244:	e3530000 	cmp	r3, #0
c1080248:	1a00000b 	bne	c108027c <load_container_images+0xd8>
c108024c:	e51b3010 	ldr	r3, [fp, #-16]
c1080250:	e2833001 	add	r3, r3, #1
c1080254:	e50b3010 	str	r3, [fp, #-16]
c1080258:	e59f005c 	ldr	r0, [pc, #92]	; c10802bc <load_container_images+0x118>
c108025c:	e51b1008 	ldr	r1, [fp, #-8]
c1080260:	eb000f3f 	bl	c1083f64 <printf>
c1080264:	e51b0018 	ldr	r0, [fp, #-24]
c1080268:	e51b100c 	ldr	r1, [fp, #-12]
c108026c:	eb00077b 	bl	c1082060 <elf32_getSection>
c1080270:	e1a03000 	mov	r3, r0
c1080274:	e1a00003 	mov	r0, r3
c1080278:	ebffff80 	bl	c1080080 <load_container_image>
c108027c:	e51b300c 	ldr	r3, [fp, #-12]
c1080280:	e2833001 	add	r3, r3, #1
c1080284:	e50b300c 	str	r3, [fp, #-12]
c1080288:	e51b200c 	ldr	r2, [fp, #-12]
c108028c:	e51b3014 	ldr	r3, [fp, #-20]
c1080290:	e1520003 	cmp	r2, r3
c1080294:	baffffdd 	blt	c1080210 <load_container_images+0x6c>
c1080298:	e59f0020 	ldr	r0, [pc, #32]	; c10802c0 <load_container_images+0x11c>
c108029c:	e51b1010 	ldr	r1, [fp, #-16]
c10802a0:	eb000f2f 	bl	c1083f64 <printf>
c10802a4:	e3a03000 	mov	r3, #0
c10802a8:	e1a00003 	mov	r0, r3
c10802ac:	e24bd004 	sub	sp, fp, #4
c10802b0:	e8bd8800 	pop	{fp, pc}
c10802b4:	c1086028 	.word	0xc1086028
c10802b8:	c1086040 	.word	0xc1086040
c10802bc:	c1086048 	.word	0xc1086048
c10802c0:	c1086078 	.word	0xc1086078

c10802c4 <load_elf_image>:
c10802c4:	e92d4810 	push	{r4, fp, lr}
c10802c8:	e28db008 	add	fp, sp, #8
c10802cc:	e24dd00c 	sub	sp, sp, #12
c10802d0:	e50b0010 	str	r0, [fp, #-16]
c10802d4:	e50b1014 	str	r1, [fp, #-20]
c10802d8:	e51b3014 	ldr	r3, [fp, #-20]
c10802dc:	e1a00003 	mov	r0, r3
c10802e0:	eb0006b6 	bl	c1081dc0 <elf32_checkFile>
c10802e4:	e1a03000 	mov	r3, r0
c10802e8:	e3530000 	cmp	r3, #0
c10802ec:	1a000015 	bne	c1080348 <load_elf_image+0x84>
c10802f0:	e51b3010 	ldr	r3, [fp, #-16]
c10802f4:	e5934000 	ldr	r4, [r3]
c10802f8:	e51b3014 	ldr	r3, [fp, #-20]
c10802fc:	e1a00003 	mov	r0, r3
c1080300:	eb0007e9 	bl	c10822ac <elf32_getEntryPoint>
c1080304:	e1a03000 	mov	r3, r0
c1080308:	e5843000 	str	r3, [r4]
c108030c:	e51b3010 	ldr	r3, [fp, #-16]
c1080310:	e5933000 	ldr	r3, [r3]
c1080314:	e5933000 	ldr	r3, [r3]
c1080318:	e59f0058 	ldr	r0, [pc, #88]	; c1080378 <load_elf_image+0xb4>
c108031c:	e1a01003 	mov	r1, r3
c1080320:	eb000f0f 	bl	c1083f64 <printf>
c1080324:	e51b0014 	ldr	r0, [fp, #-20]
c1080328:	e3a01001 	mov	r1, #1
c108032c:	eb000609 	bl	c1081b58 <elf_loadFile>
c1080330:	e1a03000 	mov	r3, r0
c1080334:	e2233001 	eor	r3, r3, #1
c1080338:	e20330ff 	and	r3, r3, #255	; 0xff
c108033c:	e3530000 	cmp	r3, #0
c1080340:	1a000004 	bne	c1080358 <load_elf_image+0x94>
c1080344:	ea000007 	b	c1080368 <load_elf_image+0xa4>
c1080348:	e59f002c 	ldr	r0, [pc, #44]	; c108037c <load_elf_image+0xb8>
c108034c:	eb000f04 	bl	c1083f64 <printf>
c1080350:	e3e03000 	mvn	r3, #0
c1080354:	ea000004 	b	c108036c <load_elf_image+0xa8>
c1080358:	e59f0020 	ldr	r0, [pc, #32]	; c1080380 <load_elf_image+0xbc>
c108035c:	eb000f00 	bl	c1083f64 <printf>
c1080360:	e3e03000 	mvn	r3, #0
c1080364:	ea000000 	b	c108036c <load_elf_image+0xa8>
c1080368:	e3a03000 	mov	r3, #0
c108036c:	e1a00003 	mov	r0, r3
c1080370:	e24bd008 	sub	sp, fp, #8
c1080374:	e8bd8810 	pop	{r4, fp, pc}
c1080378:	c1086098 	.word	0xc1086098
c108037c:	c1086028 	.word	0xc1086028
c1080380:	c10860ac 	.word	0xc10860ac

c1080384 <arch_start_kernel>:
c1080384:	e92d4800 	push	{fp, lr}
c1080388:	e28db004 	add	fp, sp, #4
c108038c:	e24dd010 	sub	sp, sp, #16
c1080390:	e50b0010 	str	r0, [fp, #-16]
c1080394:	e59f0020 	ldr	r0, [pc, #32]	; c10803bc <arch_start_kernel+0x38>
c1080398:	eb000ef1 	bl	c1083f64 <printf>
c108039c:	e51b3010 	ldr	r3, [fp, #-16]
c10803a0:	e5933000 	ldr	r3, [r3]
c10803a4:	e50b3008 	str	r3, [fp, #-8]
c10803a8:	e51b3008 	ldr	r3, [fp, #-8]
c10803ac:	e3a00000 	mov	r0, #0
c10803b0:	e12fff33 	blx	r3
c10803b4:	e24bd004 	sub	sp, fp, #4
c10803b8:	e8bd8800 	pop	{fp, pc}
c10803bc:	c10860d8 	.word	0xc10860d8

c10803c0 <main>:
c10803c0:	e92d4800 	push	{fp, lr}
c10803c4:	e28db004 	add	fp, sp, #4
c10803c8:	e24dd010 	sub	sp, sp, #16
c10803cc:	e59f2080 	ldr	r2, [pc, #128]	; c1080454 <main+0x94>
c10803d0:	e59f3080 	ldr	r3, [pc, #128]	; c1080458 <main+0x98>
c10803d4:	e0633002 	rsb	r3, r3, r2
c10803d8:	e1a02523 	lsr	r2, r3, #10
c10803dc:	e59f3074 	ldr	r3, [pc, #116]	; c1080458 <main+0x98>
c10803e0:	e59f106c 	ldr	r1, [pc, #108]	; c1080454 <main+0x94>
c10803e4:	e58d1000 	str	r1, [sp]
c10803e8:	e59f006c 	ldr	r0, [pc, #108]	; c108045c <main+0x9c>
c10803ec:	e59f106c 	ldr	r1, [pc, #108]	; c1080460 <main+0xa0>
c10803f0:	eb000edb 	bl	c1083f64 <printf>
c10803f4:	e59f0068 	ldr	r0, [pc, #104]	; c1080464 <main+0xa4>
c10803f8:	eb000ed9 	bl	c1083f64 <printf>
c10803fc:	e24b3008 	sub	r3, fp, #8
c1080400:	e1a00003 	mov	r0, r3
c1080404:	e59f105c 	ldr	r1, [pc, #92]	; c1080468 <main+0xa8>
c1080408:	ebffffad 	bl	c10802c4 <load_elf_image>
c108040c:	e59f0058 	ldr	r0, [pc, #88]	; c108046c <main+0xac>
c1080410:	eb000ed3 	bl	c1083f64 <printf>
c1080414:	e59f2054 	ldr	r2, [pc, #84]	; c1080470 <main+0xb0>
c1080418:	e59f3054 	ldr	r3, [pc, #84]	; c1080474 <main+0xb4>
c108041c:	e1a00002 	mov	r0, r2
c1080420:	e1a01003 	mov	r1, r3
c1080424:	ebffff5e 	bl	c10801a4 <load_container_images>
c1080428:	e51b3008 	ldr	r3, [fp, #-8]
c108042c:	e5933000 	ldr	r3, [r3]
c1080430:	e59f0040 	ldr	r0, [pc, #64]	; c1080478 <main+0xb8>
c1080434:	e1a01003 	mov	r1, r3
c1080438:	eb000ec9 	bl	c1083f64 <printf>
c108043c:	e51b3008 	ldr	r3, [fp, #-8]
c1080440:	e1a00003 	mov	r0, r3
c1080444:	ebffffce 	bl	c1080384 <arch_start_kernel>
c1080448:	e59f002c 	ldr	r0, [pc, #44]	; c108047c <main+0xbc>
c108044c:	eb000ec4 	bl	c1083f64 <printf>
c1080450:	eafffffe 	b	c1080450 <main+0x90>
c1080454:	c110f82c 	.word	0xc110f82c
c1080458:	c1080000 	.word	0xc1080000
c108045c:	c10860f8 	.word	0xc10860f8
c1080460:	c1086138 	.word	0xc1086138
c1080464:	c1086144 	.word	0xc1086144
c1080468:	c10864a0 	.word	0xc10864a0
c108046c:	c108615c 	.word	0xc108615c
c1080470:	c1100820 	.word	0xc1100820
c1080474:	c110f76d 	.word	0xc110f76d
c1080478:	c1086174 	.word	0xc1086174
c108047c:	c10861a0 	.word	0xc10861a0

c1080480 <PSCModuleControl>:
c1080480:	e52db004 	push	{fp}		; (str fp, [sp, #-4]!)
c1080484:	e28db000 	add	fp, sp, #0
c1080488:	e24dd024 	sub	sp, sp, #36	; 0x24
c108048c:	e50b0018 	str	r0, [fp, #-24]
c1080490:	e50b101c 	str	r1, [fp, #-28]
c1080494:	e50b2020 	str	r2, [fp, #-32]
c1080498:	e50b3024 	str	r3, [fp, #-36]	; 0x24
c108049c:	e3e034ff 	mvn	r3, #-16777216	; 0xff000000
c10804a0:	e50b3010 	str	r3, [fp, #-16]
c10804a4:	e3a03000 	mov	r3, #0
c10804a8:	e50b300c 	str	r3, [fp, #-12]
c10804ac:	e3a03000 	mov	r3, #0
c10804b0:	e50b3008 	str	r3, [fp, #-8]
c10804b4:	e51b301c 	ldr	r3, [fp, #-28]
c10804b8:	e2833d0a 	add	r3, r3, #640	; 0x280
c10804bc:	e1a02103 	lsl	r2, r3, #2
c10804c0:	e51b3018 	ldr	r3, [fp, #-24]
c10804c4:	e0823003 	add	r3, r2, r3
c10804c8:	e51b2024 	ldr	r2, [fp, #-36]	; 0x24
c10804cc:	e202201f 	and	r2, r2, #31
c10804d0:	e5832000 	str	r2, [r3]
c10804d4:	e51b3020 	ldr	r3, [fp, #-32]
c10804d8:	e3530000 	cmp	r3, #0
c10804dc:	1a000004 	bne	c10804f4 <PSCModuleControl+0x74>
c10804e0:	e51b3018 	ldr	r3, [fp, #-24]
c10804e4:	e2833e12 	add	r3, r3, #288	; 0x120
c10804e8:	e3a02001 	mov	r2, #1
c10804ec:	e5832000 	str	r2, [r3]
c10804f0:	ea000003 	b	c1080504 <PSCModuleControl+0x84>
c10804f4:	e51b3018 	ldr	r3, [fp, #-24]
c10804f8:	e2833e12 	add	r3, r3, #288	; 0x120
c10804fc:	e3a02002 	mov	r2, #2
c1080500:	e5832000 	str	r2, [r3]
c1080504:	e51b3020 	ldr	r3, [fp, #-32]
c1080508:	e3530000 	cmp	r3, #0
c108050c:	1a000011 	bne	c1080558 <PSCModuleControl+0xd8>
c1080510:	e51b3018 	ldr	r3, [fp, #-24]
c1080514:	e2833f4a 	add	r3, r3, #296	; 0x128
c1080518:	e5933000 	ldr	r3, [r3]
c108051c:	e2033001 	and	r3, r3, #1
c1080520:	e50b3008 	str	r3, [fp, #-8]
c1080524:	e51b3008 	ldr	r3, [fp, #-8]
c1080528:	e3530000 	cmp	r3, #0
c108052c:	0a00001a 	beq	c108059c <PSCModuleControl+0x11c>
c1080530:	e51b3010 	ldr	r3, [fp, #-16]
c1080534:	e3530000 	cmp	r3, #0
c1080538:	03a02000 	moveq	r2, #0
c108053c:	13a02001 	movne	r2, #1
c1080540:	e20220ff 	and	r2, r2, #255	; 0xff
c1080544:	e2433001 	sub	r3, r3, #1
c1080548:	e50b3010 	str	r3, [fp, #-16]
c108054c:	e3520000 	cmp	r2, #0
c1080550:	1affffee 	bne	c1080510 <PSCModuleControl+0x90>
c1080554:	ea000010 	b	c108059c <PSCModuleControl+0x11c>
c1080558:	e51b3018 	ldr	r3, [fp, #-24]
c108055c:	e2833f4a 	add	r3, r3, #296	; 0x128
c1080560:	e5933000 	ldr	r3, [r3]
c1080564:	e2033002 	and	r3, r3, #2
c1080568:	e50b3008 	str	r3, [fp, #-8]
c108056c:	e51b3008 	ldr	r3, [fp, #-8]
c1080570:	e3530000 	cmp	r3, #0
c1080574:	0a000008 	beq	c108059c <PSCModuleControl+0x11c>
c1080578:	e51b3010 	ldr	r3, [fp, #-16]
c108057c:	e3530000 	cmp	r3, #0
c1080580:	03a02000 	moveq	r2, #0
c1080584:	13a02001 	movne	r2, #1
c1080588:	e20220ff 	and	r2, r2, #255	; 0xff
c108058c:	e2433001 	sub	r3, r3, #1
c1080590:	e50b3010 	str	r3, [fp, #-16]
c1080594:	e3520000 	cmp	r2, #0
c1080598:	1affffee 	bne	c1080558 <PSCModuleControl+0xd8>
c108059c:	e51b3010 	ldr	r3, [fp, #-16]
c10805a0:	e3530000 	cmp	r3, #0
c10805a4:	0a000014 	beq	c10805fc <PSCModuleControl+0x17c>
c10805a8:	e3e034ff 	mvn	r3, #-16777216	; 0xff000000
c10805ac:	e50b3010 	str	r3, [fp, #-16]
c10805b0:	e51b3024 	ldr	r3, [fp, #-36]	; 0x24
c10805b4:	e203301f 	and	r3, r3, #31
c10805b8:	e50b3008 	str	r3, [fp, #-8]
c10805bc:	e51b3010 	ldr	r3, [fp, #-16]
c10805c0:	e2433001 	sub	r3, r3, #1
c10805c4:	e50b3010 	str	r3, [fp, #-16]
c10805c8:	e51b3010 	ldr	r3, [fp, #-16]
c10805cc:	e3530000 	cmp	r3, #0
c10805d0:	0a000009 	beq	c10805fc <PSCModuleControl+0x17c>
c10805d4:	e51b301c 	ldr	r3, [fp, #-28]
c10805d8:	e2833c02 	add	r3, r3, #512	; 0x200
c10805dc:	e1a02103 	lsl	r2, r3, #2
c10805e0:	e51b3018 	ldr	r3, [fp, #-24]
c10805e4:	e0823003 	add	r3, r2, r3
c10805e8:	e5933000 	ldr	r3, [r3]
c10805ec:	e203203f 	and	r2, r3, #63	; 0x3f
c10805f0:	e51b3008 	ldr	r3, [fp, #-8]
c10805f4:	e1520003 	cmp	r2, r3
c10805f8:	1affffef 	bne	c10805bc <PSCModuleControl+0x13c>
c10805fc:	e51b3010 	ldr	r3, [fp, #-16]
c1080600:	e3530000 	cmp	r3, #0
c1080604:	1a000001 	bne	c1080610 <PSCModuleControl+0x190>
c1080608:	e3e03000 	mvn	r3, #0
c108060c:	e50b300c 	str	r3, [fp, #-12]
c1080610:	e51b300c 	ldr	r3, [fp, #-12]
c1080614:	e1a00003 	mov	r0, r3
c1080618:	e28bd000 	add	sp, fp, #0
c108061c:	e8bd0800 	pop	{fp}
c1080620:	e12fff1e 	bx	lr

c1080624 <start_boot>:
c1080624:	e92d4800 	push	{fp, lr}
c1080628:	e28db004 	add	fp, sp, #4
c108062c:	eb000040 	bl	c1080734 <SysCfgRegistersLock>
c1080630:	eb000030 	bl	c10806f8 <SysCfgRegistersUnlock>
c1080634:	e59f002c 	ldr	r0, [pc, #44]	; c1080668 <start_boot+0x44>
c1080638:	e3a0100d 	mov	r1, #13
c108063c:	e3a02000 	mov	r2, #0
c1080640:	e3a03003 	mov	r3, #3
c1080644:	ebffff8d 	bl	c1080480 <PSCModuleControl>
c1080648:	e59f001c 	ldr	r0, [pc, #28]	; c108066c <start_boot+0x48>
c108064c:	e3a01006 	mov	r1, #6
c1080650:	e3a02000 	mov	r2, #0
c1080654:	e3a03003 	mov	r3, #3
c1080658:	ebffff88 	bl	c1080480 <PSCModuleControl>
c108065c:	eb000003 	bl	c1080670 <CopyVectorTable>
c1080660:	eb000a99 	bl	c10830cc <platform_init>
c1080664:	eafffffe 	b	c1080664 <start_boot+0x40>
c1080668:	01e27000 	.word	0x01e27000
c108066c:	01c10000 	.word	0x01c10000

c1080670 <CopyVectorTable>:
c1080670:	e52db004 	push	{fp}		; (str fp, [sp, #-4]!)
c1080674:	e28db000 	add	fp, sp, #0
c1080678:	e24dd014 	sub	sp, sp, #20
c108067c:	e59f3060 	ldr	r3, [pc, #96]	; c10806e4 <CopyVectorTable+0x74>
c1080680:	e50b3010 	str	r3, [fp, #-16]
c1080684:	e59f305c 	ldr	r3, [pc, #92]	; c10806e8 <CopyVectorTable+0x78>
c1080688:	e50b300c 	str	r3, [fp, #-12]
c108068c:	e3a03000 	mov	r3, #0
c1080690:	e50b3008 	str	r3, [fp, #-8]
c1080694:	ea00000c 	b	c10806cc <CopyVectorTable+0x5c>
c1080698:	e51b3008 	ldr	r3, [fp, #-8]
c108069c:	e1a02103 	lsl	r2, r3, #2
c10806a0:	e51b3010 	ldr	r3, [fp, #-16]
c10806a4:	e0823003 	add	r3, r2, r3
c10806a8:	e51b2008 	ldr	r2, [fp, #-8]
c10806ac:	e1a01102 	lsl	r1, r2, #2
c10806b0:	e51b200c 	ldr	r2, [fp, #-12]
c10806b4:	e0812002 	add	r2, r1, r2
c10806b8:	e5922000 	ldr	r2, [r2]
c10806bc:	e5832000 	str	r2, [r3]
c10806c0:	e51b3008 	ldr	r3, [fp, #-8]
c10806c4:	e2833001 	add	r3, r3, #1
c10806c8:	e50b3008 	str	r3, [fp, #-8]
c10806cc:	e51b3008 	ldr	r3, [fp, #-8]
c10806d0:	e353000d 	cmp	r3, #13
c10806d4:	9affffef 	bls	c1080698 <CopyVectorTable+0x28>
c10806d8:	e28bd000 	add	sp, fp, #0
c10806dc:	e8bd0800 	pop	{fp}
c10806e0:	e12fff1e 	bx	lr
c10806e4:	ffff0000 	.word	0xffff0000
c10806e8:	c10861ec 	.word	0xc10861ec

c10806ec <BootAbort>:
c10806ec:	e52db004 	push	{fp}		; (str fp, [sp, #-4]!)
c10806f0:	e28db000 	add	fp, sp, #0
c10806f4:	eafffffe 	b	c10806f4 <BootAbort+0x8>

c10806f8 <SysCfgRegistersUnlock>:
c10806f8:	e52db004 	push	{fp}		; (str fp, [sp, #-4]!)
c10806fc:	e28db000 	add	fp, sp, #0
c1080700:	e59f301c 	ldr	r3, [pc, #28]	; c1080724 <SysCfgRegistersUnlock+0x2c>
c1080704:	e59f201c 	ldr	r2, [pc, #28]	; c1080728 <SysCfgRegistersUnlock+0x30>
c1080708:	e5832000 	str	r2, [r3]
c108070c:	e59f3018 	ldr	r3, [pc, #24]	; c108072c <SysCfgRegistersUnlock+0x34>
c1080710:	e59f2018 	ldr	r2, [pc, #24]	; c1080730 <SysCfgRegistersUnlock+0x38>
c1080714:	e5832000 	str	r2, [r3]
c1080718:	e28bd000 	add	sp, fp, #0
c108071c:	e8bd0800 	pop	{fp}
c1080720:	e12fff1e 	bx	lr
c1080724:	01c14038 	.word	0x01c14038
c1080728:	83e70b13 	.word	0x83e70b13
c108072c:	01c1403c 	.word	0x01c1403c
c1080730:	95a4f1e0 	.word	0x95a4f1e0

c1080734 <SysCfgRegistersLock>:
c1080734:	e52db004 	push	{fp}		; (str fp, [sp, #-4]!)
c1080738:	e28db000 	add	fp, sp, #0
c108073c:	e59f301c 	ldr	r3, [pc, #28]	; c1080760 <SysCfgRegistersLock+0x2c>
c1080740:	e3e02000 	mvn	r2, #0
c1080744:	e5832000 	str	r2, [r3]
c1080748:	e59f3014 	ldr	r3, [pc, #20]	; c1080764 <SysCfgRegistersLock+0x30>
c108074c:	e3e02000 	mvn	r2, #0
c1080750:	e5832000 	str	r2, [r3]
c1080754:	e28bd000 	add	sp, fp, #0
c1080758:	e8bd0800 	pop	{fp}
c108075c:	e12fff1e 	bx	lr
c1080760:	01c14038 	.word	0x01c14038
c1080764:	01c1403c 	.word	0x01c1403c

c1080768 <SWIHandler>:
c1080768:	e92d4003 	push	{r0, r1, lr}
c108076c:	e51e0004 	ldr	r0, [lr, #-4]
c1080770:	e3c004ff 	bic	r0, r0, #-16777216	; 0xff000000
c1080774:	e3500807 	cmp	r0, #458752	; 0x70000
c1080778:	014f1000 	mrseq	r1, SPSR
c108077c:	0381101f 	orreq	r1, r1, #31
c1080780:	0169f001 	msreq	SPSR_fc, r1
c1080784:	e8fd8003 	ldm	sp!, {r0, r1, pc}^

c1080788 <IRQHandler>:
c1080788:	e92d500f 	push	{r0, r1, r2, r3, ip, lr}
c108078c:	e59f0044 	ldr	r0, [pc, #68]	; c10807d8 <loop0+0x4>
c1080790:	e5901000 	ldr	r1, [r0]
c1080794:	e28fe000 	add	lr, pc, #0
c1080798:	e591f000 	ldr	pc, [r1]
c108079c:	e8bd500f 	pop	{r0, r1, r2, r3, ip, lr}
c10807a0:	e25ef004 	subs	pc, lr, #4

c10807a4 <FIQHandler>:
c10807a4:	e92d500f 	push	{r0, r1, r2, r3, ip, lr}
c10807a8:	e59f002c 	ldr	r0, [pc, #44]	; c10807dc <loop0+0x8>
c10807ac:	e5901000 	ldr	r1, [r0]
c10807b0:	e28fe000 	add	lr, pc, #0
c10807b4:	e591f000 	ldr	pc, [r1]
c10807b8:	e8bd500f 	pop	{r0, r1, r2, r3, ip, lr}
c10807bc:	e25ef004 	subs	pc, lr, #4

c10807c0 <AbortHandler>:
c10807c0:	e10f0000 	mrs	r0, CPSR
c10807c4:	e38000c0 	orr	r0, r0, #192	; 0xc0
c10807c8:	e129f000 	msr	CPSR_fc, r0
c10807cc:	e28fe000 	add	lr, pc, #0
c10807d0:	e59ff008 	ldr	pc, [pc, #8]	; c10807e0 <loop0+0xc>

c10807d4 <loop0>:
c10807d4:	eafffffe 	b	c10807d4 <loop0>
c10807d8:	fffef604 	.word	0xfffef604
c10807dc:	fffef600 	.word	0xfffef600
c10807e0:	c1080820 	.word	0xc1080820

c10807e4 <CPUSwitchToPrivilegedMode>:
c10807e4:	e52db004 	push	{fp}		; (str fp, [sp, #-4]!)
c10807e8:	e28db000 	add	fp, sp, #0
c10807ec:	ef070000 	svc	0x00070000
c10807f0:	e28bd000 	add	sp, fp, #0
c10807f4:	e8bd0800 	pop	{fp}
c10807f8:	e12fff1e 	bx	lr

c10807fc <CPUSwitchToUserMode>:
c10807fc:	e52db004 	push	{fp}		; (str fp, [sp, #-4]!)
c1080800:	e28db000 	add	fp, sp, #0
c1080804:	e10f0000 	mrs	r0, CPSR
c1080808:	e3c0000f 	bic	r0, r0, #15
c108080c:	e3800010 	orr	r0, r0, #16
c1080810:	e129f000 	msr	CPSR_fc, r0
c1080814:	e28bd000 	add	sp, fp, #0
c1080818:	e8bd0800 	pop	{fp}
c108081c:	e12fff1e 	bx	lr

c1080820 <CPUAbortHandler>:
c1080820:	e52db004 	push	{fp}		; (str fp, [sp, #-4]!)
c1080824:	e28db000 	add	fp, sp, #0
c1080828:	e28bd000 	add	sp, fp, #0
c108082c:	e8bd0800 	pop	{fp}
c1080830:	e12fff1e 	bx	lr

c1080834 <CPUIntStatus>:
c1080834:	e52db004 	push	{fp}		; (str fp, [sp, #-4]!)
c1080838:	e28db000 	add	fp, sp, #0
c108083c:	e24dd00c 	sub	sp, sp, #12
c1080840:	e10f0000 	mrs	r0, CPSR
c1080844:	e20030c0 	and	r3, r0, #192	; 0xc0
c1080848:	e50b3008 	str	r3, [fp, #-8]
c108084c:	e51b3008 	ldr	r3, [fp, #-8]
c1080850:	e1a00003 	mov	r0, r3
c1080854:	e28bd000 	add	sp, fp, #0
c1080858:	e8bd0800 	pop	{fp}
c108085c:	e12fff1e 	bx	lr

c1080860 <CPUirqd>:
c1080860:	e52db004 	push	{fp}		; (str fp, [sp, #-4]!)
c1080864:	e28db000 	add	fp, sp, #0
c1080868:	e10f0000 	mrs	r0, CPSR
c108086c:	e3800080 	orr	r0, r0, #128	; 0x80
c1080870:	e129f000 	msr	CPSR_fc, r0
c1080874:	e28bd000 	add	sp, fp, #0
c1080878:	e8bd0800 	pop	{fp}
c108087c:	e12fff1e 	bx	lr

c1080880 <CPUirqe>:
c1080880:	e52db004 	push	{fp}		; (str fp, [sp, #-4]!)
c1080884:	e28db000 	add	fp, sp, #0
c1080888:	e10f0000 	mrs	r0, CPSR
c108088c:	e3c00080 	bic	r0, r0, #128	; 0x80
c1080890:	e129f000 	msr	CPSR_fc, r0
c1080894:	e28bd000 	add	sp, fp, #0
c1080898:	e8bd0800 	pop	{fp}
c108089c:	e12fff1e 	bx	lr

c10808a0 <CPUfiqd>:
c10808a0:	e52db004 	push	{fp}		; (str fp, [sp, #-4]!)
c10808a4:	e28db000 	add	fp, sp, #0
c10808a8:	e10f0000 	mrs	r0, CPSR
c10808ac:	e3800040 	orr	r0, r0, #64	; 0x40
c10808b0:	e129f000 	msr	CPSR_fc, r0
c10808b4:	e28bd000 	add	sp, fp, #0
c10808b8:	e8bd0800 	pop	{fp}
c10808bc:	e12fff1e 	bx	lr

c10808c0 <CPUfiqe>:
c10808c0:	e52db004 	push	{fp}		; (str fp, [sp, #-4]!)
c10808c4:	e28db000 	add	fp, sp, #0
c10808c8:	e10f0000 	mrs	r0, CPSR
c10808cc:	e3c00040 	bic	r0, r0, #64	; 0x40
c10808d0:	e129f000 	msr	CPSR_fc, r0
c10808d4:	e28bd000 	add	sp, fp, #0
c10808d8:	e8bd0800 	pop	{fp}
c10808dc:	e12fff1e 	bx	lr

c10808e0 <elf32_getSectionTable>:
c10808e0:	e52db004 	push	{fp}		; (str fp, [sp, #-4]!)
c10808e4:	e28db000 	add	fp, sp, #0
c10808e8:	e24dd00c 	sub	sp, sp, #12
c10808ec:	e50b0008 	str	r0, [fp, #-8]
c10808f0:	e51b3008 	ldr	r3, [fp, #-8]
c10808f4:	e5932020 	ldr	r2, [r3, #32]
c10808f8:	e51b3008 	ldr	r3, [fp, #-8]
c10808fc:	e0823003 	add	r3, r2, r3
c1080900:	e1a00003 	mov	r0, r3
c1080904:	e28bd000 	add	sp, fp, #0
c1080908:	e8bd0800 	pop	{fp}
c108090c:	e12fff1e 	bx	lr

c1080910 <elf32_getSectionType>:
c1080910:	e92d4800 	push	{fp, lr}
c1080914:	e28db004 	add	fp, sp, #4
c1080918:	e24dd008 	sub	sp, sp, #8
c108091c:	e50b0008 	str	r0, [fp, #-8]
c1080920:	e1a03001 	mov	r3, r1
c1080924:	e14b30ba 	strh	r3, [fp, #-10]
c1080928:	e51b0008 	ldr	r0, [fp, #-8]
c108092c:	ebffffeb 	bl	c10808e0 <elf32_getSectionTable>
c1080930:	e1a01000 	mov	r1, r0
c1080934:	e15b20ba 	ldrh	r2, [fp, #-10]
c1080938:	e1a03002 	mov	r3, r2
c108093c:	e1a03103 	lsl	r3, r3, #2
c1080940:	e0833002 	add	r3, r3, r2
c1080944:	e1a03183 	lsl	r3, r3, #3
c1080948:	e0813003 	add	r3, r1, r3
c108094c:	e5933004 	ldr	r3, [r3, #4]
c1080950:	e1a00003 	mov	r0, r3
c1080954:	e24bd004 	sub	sp, fp, #4
c1080958:	e8bd8800 	pop	{fp, pc}

c108095c <elf32_getSectionFlags>:
c108095c:	e92d4800 	push	{fp, lr}
c1080960:	e28db004 	add	fp, sp, #4
c1080964:	e24dd008 	sub	sp, sp, #8
c1080968:	e50b0008 	str	r0, [fp, #-8]
c108096c:	e1a03001 	mov	r3, r1
c1080970:	e14b30ba 	strh	r3, [fp, #-10]
c1080974:	e51b0008 	ldr	r0, [fp, #-8]
c1080978:	ebffffd8 	bl	c10808e0 <elf32_getSectionTable>
c108097c:	e1a01000 	mov	r1, r0
c1080980:	e15b20ba 	ldrh	r2, [fp, #-10]
c1080984:	e1a03002 	mov	r3, r2
c1080988:	e1a03103 	lsl	r3, r3, #2
c108098c:	e0833002 	add	r3, r3, r2
c1080990:	e1a03183 	lsl	r3, r3, #3
c1080994:	e0813003 	add	r3, r1, r3
c1080998:	e5933008 	ldr	r3, [r3, #8]
c108099c:	e1a00003 	mov	r0, r3
c10809a0:	e24bd004 	sub	sp, fp, #4
c10809a4:	e8bd8800 	pop	{fp, pc}

c10809a8 <elf32_getProgramHeaderTable>:
c10809a8:	e52db004 	push	{fp}		; (str fp, [sp, #-4]!)
c10809ac:	e28db000 	add	fp, sp, #0
c10809b0:	e24dd00c 	sub	sp, sp, #12
c10809b4:	e50b0008 	str	r0, [fp, #-8]
c10809b8:	e51b3008 	ldr	r3, [fp, #-8]
c10809bc:	e593201c 	ldr	r2, [r3, #28]
c10809c0:	e51b3008 	ldr	r3, [fp, #-8]
c10809c4:	e0823003 	add	r3, r2, r3
c10809c8:	e1a00003 	mov	r0, r3
c10809cc:	e28bd000 	add	sp, fp, #0
c10809d0:	e8bd0800 	pop	{fp}
c10809d4:	e12fff1e 	bx	lr

c10809d8 <elf32_getProgramHeaderFlags>:
c10809d8:	e92d4800 	push	{fp, lr}
c10809dc:	e28db004 	add	fp, sp, #4
c10809e0:	e24dd008 	sub	sp, sp, #8
c10809e4:	e50b0008 	str	r0, [fp, #-8]
c10809e8:	e1a03001 	mov	r3, r1
c10809ec:	e14b30ba 	strh	r3, [fp, #-10]
c10809f0:	e51b0008 	ldr	r0, [fp, #-8]
c10809f4:	ebffffeb 	bl	c10809a8 <elf32_getProgramHeaderTable>
c10809f8:	e1a02000 	mov	r2, r0
c10809fc:	e15b30ba 	ldrh	r3, [fp, #-10]
c1080a00:	e1a03283 	lsl	r3, r3, #5
c1080a04:	e0823003 	add	r3, r2, r3
c1080a08:	e5933018 	ldr	r3, [r3, #24]
c1080a0c:	e1a00003 	mov	r0, r3
c1080a10:	e24bd004 	sub	sp, fp, #4
c1080a14:	e8bd8800 	pop	{fp, pc}

c1080a18 <elf32_getProgramHeaderType>:
c1080a18:	e92d4800 	push	{fp, lr}
c1080a1c:	e28db004 	add	fp, sp, #4
c1080a20:	e24dd008 	sub	sp, sp, #8
c1080a24:	e50b0008 	str	r0, [fp, #-8]
c1080a28:	e1a03001 	mov	r3, r1
c1080a2c:	e14b30ba 	strh	r3, [fp, #-10]
c1080a30:	e51b0008 	ldr	r0, [fp, #-8]
c1080a34:	ebffffdb 	bl	c10809a8 <elf32_getProgramHeaderTable>
c1080a38:	e1a02000 	mov	r2, r0
c1080a3c:	e15b30ba 	ldrh	r3, [fp, #-10]
c1080a40:	e1a03283 	lsl	r3, r3, #5
c1080a44:	e0823003 	add	r3, r2, r3
c1080a48:	e5933000 	ldr	r3, [r3]
c1080a4c:	e1a00003 	mov	r0, r3
c1080a50:	e24bd004 	sub	sp, fp, #4
c1080a54:	e8bd8800 	pop	{fp, pc}

c1080a58 <elf32_getProgramHeaderFileSize>:
c1080a58:	e92d4800 	push	{fp, lr}
c1080a5c:	e28db004 	add	fp, sp, #4
c1080a60:	e24dd008 	sub	sp, sp, #8
c1080a64:	e50b0008 	str	r0, [fp, #-8]
c1080a68:	e1a03001 	mov	r3, r1
c1080a6c:	e14b30ba 	strh	r3, [fp, #-10]
c1080a70:	e51b0008 	ldr	r0, [fp, #-8]
c1080a74:	ebffffcb 	bl	c10809a8 <elf32_getProgramHeaderTable>
c1080a78:	e1a02000 	mov	r2, r0
c1080a7c:	e15b30ba 	ldrh	r3, [fp, #-10]
c1080a80:	e1a03283 	lsl	r3, r3, #5
c1080a84:	e0823003 	add	r3, r2, r3
c1080a88:	e5933010 	ldr	r3, [r3, #16]
c1080a8c:	e1a00003 	mov	r0, r3
c1080a90:	e24bd004 	sub	sp, fp, #4
c1080a94:	e8bd8800 	pop	{fp, pc}

c1080a98 <elf32_getProgramHeaderMemorySize>:
c1080a98:	e92d4800 	push	{fp, lr}
c1080a9c:	e28db004 	add	fp, sp, #4
c1080aa0:	e24dd008 	sub	sp, sp, #8
c1080aa4:	e50b0008 	str	r0, [fp, #-8]
c1080aa8:	e1a03001 	mov	r3, r1
c1080aac:	e14b30ba 	strh	r3, [fp, #-10]
c1080ab0:	e51b0008 	ldr	r0, [fp, #-8]
c1080ab4:	ebffffbb 	bl	c10809a8 <elf32_getProgramHeaderTable>
c1080ab8:	e1a02000 	mov	r2, r0
c1080abc:	e15b30ba 	ldrh	r3, [fp, #-10]
c1080ac0:	e1a03283 	lsl	r3, r3, #5
c1080ac4:	e0823003 	add	r3, r2, r3
c1080ac8:	e5933014 	ldr	r3, [r3, #20]
c1080acc:	e1a00003 	mov	r0, r3
c1080ad0:	e24bd004 	sub	sp, fp, #4
c1080ad4:	e8bd8800 	pop	{fp, pc}

c1080ad8 <elf32_getProgramHeaderVaddr>:
c1080ad8:	e92d4800 	push	{fp, lr}
c1080adc:	e28db004 	add	fp, sp, #4
c1080ae0:	e24dd008 	sub	sp, sp, #8
c1080ae4:	e50b0008 	str	r0, [fp, #-8]
c1080ae8:	e1a03001 	mov	r3, r1
c1080aec:	e14b30ba 	strh	r3, [fp, #-10]
c1080af0:	e51b0008 	ldr	r0, [fp, #-8]
c1080af4:	ebffffab 	bl	c10809a8 <elf32_getProgramHeaderTable>
c1080af8:	e1a02000 	mov	r2, r0
c1080afc:	e15b30ba 	ldrh	r3, [fp, #-10]
c1080b00:	e1a03283 	lsl	r3, r3, #5
c1080b04:	e0823003 	add	r3, r2, r3
c1080b08:	e5933008 	ldr	r3, [r3, #8]
c1080b0c:	e1a00003 	mov	r0, r3
c1080b10:	e24bd004 	sub	sp, fp, #4
c1080b14:	e8bd8800 	pop	{fp, pc}

c1080b18 <elf32_getProgramHeaderPaddr>:
c1080b18:	e92d4800 	push	{fp, lr}
c1080b1c:	e28db004 	add	fp, sp, #4
c1080b20:	e24dd008 	sub	sp, sp, #8
c1080b24:	e50b0008 	str	r0, [fp, #-8]
c1080b28:	e1a03001 	mov	r3, r1
c1080b2c:	e14b30ba 	strh	r3, [fp, #-10]
c1080b30:	e51b0008 	ldr	r0, [fp, #-8]
c1080b34:	ebffff9b 	bl	c10809a8 <elf32_getProgramHeaderTable>
c1080b38:	e1a02000 	mov	r2, r0
c1080b3c:	e15b30ba 	ldrh	r3, [fp, #-10]
c1080b40:	e1a03283 	lsl	r3, r3, #5
c1080b44:	e0823003 	add	r3, r2, r3
c1080b48:	e593300c 	ldr	r3, [r3, #12]
c1080b4c:	e1a00003 	mov	r0, r3
c1080b50:	e24bd004 	sub	sp, fp, #4
c1080b54:	e8bd8800 	pop	{fp, pc}

c1080b58 <elf32_getProgramHeaderOffset>:
c1080b58:	e92d4800 	push	{fp, lr}
c1080b5c:	e28db004 	add	fp, sp, #4
c1080b60:	e24dd008 	sub	sp, sp, #8
c1080b64:	e50b0008 	str	r0, [fp, #-8]
c1080b68:	e1a03001 	mov	r3, r1
c1080b6c:	e14b30ba 	strh	r3, [fp, #-10]
c1080b70:	e51b0008 	ldr	r0, [fp, #-8]
c1080b74:	ebffff8b 	bl	c10809a8 <elf32_getProgramHeaderTable>
c1080b78:	e1a02000 	mov	r2, r0
c1080b7c:	e15b30ba 	ldrh	r3, [fp, #-10]
c1080b80:	e1a03283 	lsl	r3, r3, #5
c1080b84:	e0823003 	add	r3, r2, r3
c1080b88:	e5933004 	ldr	r3, [r3, #4]
c1080b8c:	e1a00003 	mov	r0, r3
c1080b90:	e24bd004 	sub	sp, fp, #4
c1080b94:	e8bd8800 	pop	{fp, pc}

c1080b98 <elf64_getSectionTable>:
c1080b98:	e92d0810 	push	{r4, fp}
c1080b9c:	e28db004 	add	fp, sp, #4
c1080ba0:	e24dd008 	sub	sp, sp, #8
c1080ba4:	e50b0008 	str	r0, [fp, #-8]
c1080ba8:	e51b3008 	ldr	r3, [fp, #-8]
c1080bac:	e2834028 	add	r4, r3, #40	; 0x28
c1080bb0:	e8940018 	ldm	r4, {r3, r4}
c1080bb4:	e1a02003 	mov	r2, r3
c1080bb8:	e51b3008 	ldr	r3, [fp, #-8]
c1080bbc:	e0823003 	add	r3, r2, r3
c1080bc0:	e1a00003 	mov	r0, r3
c1080bc4:	e24bd004 	sub	sp, fp, #4
c1080bc8:	e8bd0810 	pop	{r4, fp}
c1080bcc:	e12fff1e 	bx	lr

c1080bd0 <elf64_getSectionType>:
c1080bd0:	e92d4800 	push	{fp, lr}
c1080bd4:	e28db004 	add	fp, sp, #4
c1080bd8:	e24dd008 	sub	sp, sp, #8
c1080bdc:	e50b0008 	str	r0, [fp, #-8]
c1080be0:	e1a03001 	mov	r3, r1
c1080be4:	e14b30ba 	strh	r3, [fp, #-10]
c1080be8:	e51b0008 	ldr	r0, [fp, #-8]
c1080bec:	ebffffe9 	bl	c1080b98 <elf64_getSectionTable>
c1080bf0:	e1a02000 	mov	r2, r0
c1080bf4:	e15b30ba 	ldrh	r3, [fp, #-10]
c1080bf8:	e1a03303 	lsl	r3, r3, #6
c1080bfc:	e0823003 	add	r3, r2, r3
c1080c00:	e5933004 	ldr	r3, [r3, #4]
c1080c04:	e1a00003 	mov	r0, r3
c1080c08:	e24bd004 	sub	sp, fp, #4
c1080c0c:	e8bd8800 	pop	{fp, pc}

c1080c10 <elf64_getSectionFlags>:
c1080c10:	e92d4810 	push	{r4, fp, lr}
c1080c14:	e28db008 	add	fp, sp, #8
c1080c18:	e24dd00c 	sub	sp, sp, #12
c1080c1c:	e50b0010 	str	r0, [fp, #-16]
c1080c20:	e1a03001 	mov	r3, r1
c1080c24:	e14b31b2 	strh	r3, [fp, #-18]	; 0xffffffee
c1080c28:	e51b0010 	ldr	r0, [fp, #-16]
c1080c2c:	ebffffd9 	bl	c1080b98 <elf64_getSectionTable>
c1080c30:	e1a02000 	mov	r2, r0
c1080c34:	e15b31b2 	ldrh	r3, [fp, #-18]	; 0xffffffee
c1080c38:	e1a03303 	lsl	r3, r3, #6
c1080c3c:	e0823003 	add	r3, r2, r3
c1080c40:	e2834008 	add	r4, r3, #8
c1080c44:	e8940018 	ldm	r4, {r3, r4}
c1080c48:	e1a00003 	mov	r0, r3
c1080c4c:	e24bd008 	sub	sp, fp, #8
c1080c50:	e8bd8810 	pop	{r4, fp, pc}

c1080c54 <elf64_getProgramHeaderTable>:
c1080c54:	e92d0810 	push	{r4, fp}
c1080c58:	e28db004 	add	fp, sp, #4
c1080c5c:	e24dd008 	sub	sp, sp, #8
c1080c60:	e50b0008 	str	r0, [fp, #-8]
c1080c64:	e51b3008 	ldr	r3, [fp, #-8]
c1080c68:	e2834020 	add	r4, r3, #32
c1080c6c:	e8940018 	ldm	r4, {r3, r4}
c1080c70:	e1a02003 	mov	r2, r3
c1080c74:	e51b3008 	ldr	r3, [fp, #-8]
c1080c78:	e0823003 	add	r3, r2, r3
c1080c7c:	e1a00003 	mov	r0, r3
c1080c80:	e24bd004 	sub	sp, fp, #4
c1080c84:	e8bd0810 	pop	{r4, fp}
c1080c88:	e12fff1e 	bx	lr

c1080c8c <elf64_getProgramHeaderFlags>:
c1080c8c:	e92d4800 	push	{fp, lr}
c1080c90:	e28db004 	add	fp, sp, #4
c1080c94:	e24dd008 	sub	sp, sp, #8
c1080c98:	e50b0008 	str	r0, [fp, #-8]
c1080c9c:	e1a03001 	mov	r3, r1
c1080ca0:	e14b30ba 	strh	r3, [fp, #-10]
c1080ca4:	e51b0008 	ldr	r0, [fp, #-8]
c1080ca8:	ebffffe9 	bl	c1080c54 <elf64_getProgramHeaderTable>
c1080cac:	e1a01000 	mov	r1, r0
c1080cb0:	e15b20ba 	ldrh	r2, [fp, #-10]
c1080cb4:	e1a03002 	mov	r3, r2
c1080cb8:	e1a03183 	lsl	r3, r3, #3
c1080cbc:	e0623003 	rsb	r3, r2, r3
c1080cc0:	e1a03183 	lsl	r3, r3, #3
c1080cc4:	e0813003 	add	r3, r1, r3
c1080cc8:	e5933004 	ldr	r3, [r3, #4]
c1080ccc:	e1a00003 	mov	r0, r3
c1080cd0:	e24bd004 	sub	sp, fp, #4
c1080cd4:	e8bd8800 	pop	{fp, pc}

c1080cd8 <elf64_getProgramHeaderType>:
c1080cd8:	e92d4800 	push	{fp, lr}
c1080cdc:	e28db004 	add	fp, sp, #4
c1080ce0:	e24dd008 	sub	sp, sp, #8
c1080ce4:	e50b0008 	str	r0, [fp, #-8]
c1080ce8:	e1a03001 	mov	r3, r1
c1080cec:	e14b30ba 	strh	r3, [fp, #-10]
c1080cf0:	e51b0008 	ldr	r0, [fp, #-8]
c1080cf4:	ebffffd6 	bl	c1080c54 <elf64_getProgramHeaderTable>
c1080cf8:	e1a01000 	mov	r1, r0
c1080cfc:	e15b20ba 	ldrh	r2, [fp, #-10]
c1080d00:	e1a03002 	mov	r3, r2
c1080d04:	e1a03183 	lsl	r3, r3, #3
c1080d08:	e0623003 	rsb	r3, r2, r3
c1080d0c:	e1a03183 	lsl	r3, r3, #3
c1080d10:	e0813003 	add	r3, r1, r3
c1080d14:	e5933000 	ldr	r3, [r3]
c1080d18:	e1a00003 	mov	r0, r3
c1080d1c:	e24bd004 	sub	sp, fp, #4
c1080d20:	e8bd8800 	pop	{fp, pc}

c1080d24 <elf64_getProgramHeaderFileSize>:
c1080d24:	e92d4810 	push	{r4, fp, lr}
c1080d28:	e28db008 	add	fp, sp, #8
c1080d2c:	e24dd00c 	sub	sp, sp, #12
c1080d30:	e50b0010 	str	r0, [fp, #-16]
c1080d34:	e1a03001 	mov	r3, r1
c1080d38:	e14b31b2 	strh	r3, [fp, #-18]	; 0xffffffee
c1080d3c:	e51b0010 	ldr	r0, [fp, #-16]
c1080d40:	ebffffc3 	bl	c1080c54 <elf64_getProgramHeaderTable>
c1080d44:	e1a01000 	mov	r1, r0
c1080d48:	e15b21b2 	ldrh	r2, [fp, #-18]	; 0xffffffee
c1080d4c:	e1a03002 	mov	r3, r2
c1080d50:	e1a03183 	lsl	r3, r3, #3
c1080d54:	e0623003 	rsb	r3, r2, r3
c1080d58:	e1a03183 	lsl	r3, r3, #3
c1080d5c:	e0813003 	add	r3, r1, r3
c1080d60:	e2834020 	add	r4, r3, #32
c1080d64:	e8940018 	ldm	r4, {r3, r4}
c1080d68:	e1a00003 	mov	r0, r3
c1080d6c:	e1a01004 	mov	r1, r4
c1080d70:	e24bd008 	sub	sp, fp, #8
c1080d74:	e8bd8810 	pop	{r4, fp, pc}

c1080d78 <elf64_getProgramHeaderMemorySize>:
c1080d78:	e92d4810 	push	{r4, fp, lr}
c1080d7c:	e28db008 	add	fp, sp, #8
c1080d80:	e24dd00c 	sub	sp, sp, #12
c1080d84:	e50b0010 	str	r0, [fp, #-16]
c1080d88:	e1a03001 	mov	r3, r1
c1080d8c:	e14b31b2 	strh	r3, [fp, #-18]	; 0xffffffee
c1080d90:	e51b0010 	ldr	r0, [fp, #-16]
c1080d94:	ebffffae 	bl	c1080c54 <elf64_getProgramHeaderTable>
c1080d98:	e1a01000 	mov	r1, r0
c1080d9c:	e15b21b2 	ldrh	r2, [fp, #-18]	; 0xffffffee
c1080da0:	e1a03002 	mov	r3, r2
c1080da4:	e1a03183 	lsl	r3, r3, #3
c1080da8:	e0623003 	rsb	r3, r2, r3
c1080dac:	e1a03183 	lsl	r3, r3, #3
c1080db0:	e0813003 	add	r3, r1, r3
c1080db4:	e2834028 	add	r4, r3, #40	; 0x28
c1080db8:	e8940018 	ldm	r4, {r3, r4}
c1080dbc:	e1a00003 	mov	r0, r3
c1080dc0:	e1a01004 	mov	r1, r4
c1080dc4:	e24bd008 	sub	sp, fp, #8
c1080dc8:	e8bd8810 	pop	{r4, fp, pc}

c1080dcc <elf64_getProgramHeaderVaddr>:
c1080dcc:	e92d4810 	push	{r4, fp, lr}
c1080dd0:	e28db008 	add	fp, sp, #8
c1080dd4:	e24dd00c 	sub	sp, sp, #12
c1080dd8:	e50b0010 	str	r0, [fp, #-16]
c1080ddc:	e1a03001 	mov	r3, r1
c1080de0:	e14b31b2 	strh	r3, [fp, #-18]	; 0xffffffee
c1080de4:	e51b0010 	ldr	r0, [fp, #-16]
c1080de8:	ebffff99 	bl	c1080c54 <elf64_getProgramHeaderTable>
c1080dec:	e1a01000 	mov	r1, r0
c1080df0:	e15b21b2 	ldrh	r2, [fp, #-18]	; 0xffffffee
c1080df4:	e1a03002 	mov	r3, r2
c1080df8:	e1a03183 	lsl	r3, r3, #3
c1080dfc:	e0623003 	rsb	r3, r2, r3
c1080e00:	e1a03183 	lsl	r3, r3, #3
c1080e04:	e0813003 	add	r3, r1, r3
c1080e08:	e2834010 	add	r4, r3, #16
c1080e0c:	e8940018 	ldm	r4, {r3, r4}
c1080e10:	e1a00003 	mov	r0, r3
c1080e14:	e1a01004 	mov	r1, r4
c1080e18:	e24bd008 	sub	sp, fp, #8
c1080e1c:	e8bd8810 	pop	{r4, fp, pc}

c1080e20 <elf64_getProgramHeaderPaddr>:
c1080e20:	e92d4810 	push	{r4, fp, lr}
c1080e24:	e28db008 	add	fp, sp, #8
c1080e28:	e24dd00c 	sub	sp, sp, #12
c1080e2c:	e50b0010 	str	r0, [fp, #-16]
c1080e30:	e1a03001 	mov	r3, r1
c1080e34:	e14b31b2 	strh	r3, [fp, #-18]	; 0xffffffee
c1080e38:	e51b0010 	ldr	r0, [fp, #-16]
c1080e3c:	ebffff84 	bl	c1080c54 <elf64_getProgramHeaderTable>
c1080e40:	e1a01000 	mov	r1, r0
c1080e44:	e15b21b2 	ldrh	r2, [fp, #-18]	; 0xffffffee
c1080e48:	e1a03002 	mov	r3, r2
c1080e4c:	e1a03183 	lsl	r3, r3, #3
c1080e50:	e0623003 	rsb	r3, r2, r3
c1080e54:	e1a03183 	lsl	r3, r3, #3
c1080e58:	e0813003 	add	r3, r1, r3
c1080e5c:	e2834018 	add	r4, r3, #24
c1080e60:	e8940018 	ldm	r4, {r3, r4}
c1080e64:	e1a00003 	mov	r0, r3
c1080e68:	e1a01004 	mov	r1, r4
c1080e6c:	e24bd008 	sub	sp, fp, #8
c1080e70:	e8bd8810 	pop	{r4, fp, pc}

c1080e74 <elf64_getProgramHeaderOffset>:
c1080e74:	e92d4810 	push	{r4, fp, lr}
c1080e78:	e28db008 	add	fp, sp, #8
c1080e7c:	e24dd00c 	sub	sp, sp, #12
c1080e80:	e50b0010 	str	r0, [fp, #-16]
c1080e84:	e1a03001 	mov	r3, r1
c1080e88:	e14b31b2 	strh	r3, [fp, #-18]	; 0xffffffee
c1080e8c:	e51b0010 	ldr	r0, [fp, #-16]
c1080e90:	ebffff6f 	bl	c1080c54 <elf64_getProgramHeaderTable>
c1080e94:	e1a01000 	mov	r1, r0
c1080e98:	e15b21b2 	ldrh	r2, [fp, #-18]	; 0xffffffee
c1080e9c:	e1a03002 	mov	r3, r2
c1080ea0:	e1a03183 	lsl	r3, r3, #3
c1080ea4:	e0623003 	rsb	r3, r2, r3
c1080ea8:	e1a03183 	lsl	r3, r3, #3
c1080eac:	e0813003 	add	r3, r1, r3
c1080eb0:	e2834008 	add	r4, r3, #8
c1080eb4:	e8940018 	ldm	r4, {r3, r4}
c1080eb8:	e1a00003 	mov	r0, r3
c1080ebc:	e1a01004 	mov	r1, r4
c1080ec0:	e24bd008 	sub	sp, fp, #8
c1080ec4:	e8bd8810 	pop	{r4, fp, pc}

c1080ec8 <elf_checkFile>:
c1080ec8:	e92d4800 	push	{fp, lr}
c1080ecc:	e28db004 	add	fp, sp, #4
c1080ed0:	e24dd008 	sub	sp, sp, #8
c1080ed4:	e50b0008 	str	r0, [fp, #-8]
c1080ed8:	e51b3008 	ldr	r3, [fp, #-8]
c1080edc:	e5d33004 	ldrb	r3, [r3, #4]
c1080ee0:	e3530001 	cmp	r3, #1
c1080ee4:	1a000004 	bne	c1080efc <elf_checkFile+0x34>
c1080ee8:	e51b3008 	ldr	r3, [fp, #-8]
c1080eec:	e1a00003 	mov	r0, r3
c1080ef0:	eb0003b2 	bl	c1081dc0 <elf32_checkFile>
c1080ef4:	e1a03000 	mov	r3, r0
c1080ef8:	ea000002 	b	c1080f08 <elf_checkFile+0x40>
c1080efc:	e51b0008 	ldr	r0, [fp, #-8]
c1080f00:	eb0005f0 	bl	c10826c8 <elf64_checkFile>
c1080f04:	e1a03000 	mov	r3, r0
c1080f08:	e1a00003 	mov	r0, r3
c1080f0c:	e24bd004 	sub	sp, fp, #4
c1080f10:	e8bd8800 	pop	{fp, pc}

c1080f14 <elf_getNumProgramHeaders>:
c1080f14:	e92d4800 	push	{fp, lr}
c1080f18:	e28db004 	add	fp, sp, #4
c1080f1c:	e24dd008 	sub	sp, sp, #8
c1080f20:	e50b0008 	str	r0, [fp, #-8]
c1080f24:	e51b3008 	ldr	r3, [fp, #-8]
c1080f28:	e5d33004 	ldrb	r3, [r3, #4]
c1080f2c:	e3530001 	cmp	r3, #1
c1080f30:	1a000004 	bne	c1080f48 <elf_getNumProgramHeaders+0x34>
c1080f34:	e51b3008 	ldr	r3, [fp, #-8]
c1080f38:	e1a00003 	mov	r0, r3
c1080f3c:	eb0003f0 	bl	c1081f04 <elf32_getNumProgramHeaders>
c1080f40:	e1a03000 	mov	r3, r0
c1080f44:	ea000003 	b	c1080f58 <elf_getNumProgramHeaders+0x44>
c1080f48:	e51b3008 	ldr	r3, [fp, #-8]
c1080f4c:	e1a00003 	mov	r0, r3
c1080f50:	eb0006c6 	bl	c1082a70 <elf64_getNumProgramHeaders>
c1080f54:	e1a03000 	mov	r3, r0
c1080f58:	e1a00003 	mov	r0, r3
c1080f5c:	e24bd004 	sub	sp, fp, #4
c1080f60:	e8bd8800 	pop	{fp, pc}

c1080f64 <elf_getProgramHeaderFlags>:
c1080f64:	e92d4800 	push	{fp, lr}
c1080f68:	e28db004 	add	fp, sp, #4
c1080f6c:	e24dd008 	sub	sp, sp, #8
c1080f70:	e50b0008 	str	r0, [fp, #-8]
c1080f74:	e1a03001 	mov	r3, r1
c1080f78:	e14b30ba 	strh	r3, [fp, #-10]
c1080f7c:	e51b3008 	ldr	r3, [fp, #-8]
c1080f80:	e5d33004 	ldrb	r3, [r3, #4]
c1080f84:	e3530001 	cmp	r3, #1
c1080f88:	1a000006 	bne	c1080fa8 <elf_getProgramHeaderFlags+0x44>
c1080f8c:	e51b2008 	ldr	r2, [fp, #-8]
c1080f90:	e15b30ba 	ldrh	r3, [fp, #-10]
c1080f94:	e1a00002 	mov	r0, r2
c1080f98:	e1a01003 	mov	r1, r3
c1080f9c:	ebfffe8d 	bl	c10809d8 <elf32_getProgramHeaderFlags>
c1080fa0:	e1a03000 	mov	r3, r0
c1080fa4:	ea000005 	b	c1080fc0 <elf_getProgramHeaderFlags+0x5c>
c1080fa8:	e51b2008 	ldr	r2, [fp, #-8]
c1080fac:	e15b30ba 	ldrh	r3, [fp, #-10]
c1080fb0:	e1a00002 	mov	r0, r2
c1080fb4:	e1a01003 	mov	r1, r3
c1080fb8:	ebffff33 	bl	c1080c8c <elf64_getProgramHeaderFlags>
c1080fbc:	e1a03000 	mov	r3, r0
c1080fc0:	e1a00003 	mov	r0, r3
c1080fc4:	e24bd004 	sub	sp, fp, #4
c1080fc8:	e8bd8800 	pop	{fp, pc}

c1080fcc <elf_getProgramHeaderType>:
c1080fcc:	e92d4800 	push	{fp, lr}
c1080fd0:	e28db004 	add	fp, sp, #4
c1080fd4:	e24dd008 	sub	sp, sp, #8
c1080fd8:	e50b0008 	str	r0, [fp, #-8]
c1080fdc:	e1a03001 	mov	r3, r1
c1080fe0:	e14b30ba 	strh	r3, [fp, #-10]
c1080fe4:	e51b3008 	ldr	r3, [fp, #-8]
c1080fe8:	e5d33004 	ldrb	r3, [r3, #4]
c1080fec:	e3530001 	cmp	r3, #1
c1080ff0:	1a000006 	bne	c1081010 <elf_getProgramHeaderType+0x44>
c1080ff4:	e51b2008 	ldr	r2, [fp, #-8]
c1080ff8:	e15b30ba 	ldrh	r3, [fp, #-10]
c1080ffc:	e1a00002 	mov	r0, r2
c1081000:	e1a01003 	mov	r1, r3
c1081004:	ebfffe83 	bl	c1080a18 <elf32_getProgramHeaderType>
c1081008:	e1a03000 	mov	r3, r0
c108100c:	ea000005 	b	c1081028 <elf_getProgramHeaderType+0x5c>
c1081010:	e51b2008 	ldr	r2, [fp, #-8]
c1081014:	e15b30ba 	ldrh	r3, [fp, #-10]
c1081018:	e1a00002 	mov	r0, r2
c108101c:	e1a01003 	mov	r1, r3
c1081020:	ebffff2c 	bl	c1080cd8 <elf64_getProgramHeaderType>
c1081024:	e1a03000 	mov	r3, r0
c1081028:	e1a00003 	mov	r0, r3
c108102c:	e24bd004 	sub	sp, fp, #4
c1081030:	e8bd8800 	pop	{fp, pc}

c1081034 <elf_getProgramHeaderPaddr>:
c1081034:	e92d4810 	push	{r4, fp, lr}
c1081038:	e28db008 	add	fp, sp, #8
c108103c:	e24dd00c 	sub	sp, sp, #12
c1081040:	e50b0010 	str	r0, [fp, #-16]
c1081044:	e1a03001 	mov	r3, r1
c1081048:	e14b31b2 	strh	r3, [fp, #-18]	; 0xffffffee
c108104c:	e51b3010 	ldr	r3, [fp, #-16]
c1081050:	e5d33004 	ldrb	r3, [r3, #4]
c1081054:	e3530001 	cmp	r3, #1
c1081058:	1a000007 	bne	c108107c <elf_getProgramHeaderPaddr+0x48>
c108105c:	e51b2010 	ldr	r2, [fp, #-16]
c1081060:	e15b31b2 	ldrh	r3, [fp, #-18]	; 0xffffffee
c1081064:	e1a00002 	mov	r0, r2
c1081068:	e1a01003 	mov	r1, r3
c108106c:	ebfffea9 	bl	c1080b18 <elf32_getProgramHeaderPaddr>
c1081070:	e1a03000 	mov	r3, r0
c1081074:	e3a04000 	mov	r4, #0
c1081078:	ea000006 	b	c1081098 <elf_getProgramHeaderPaddr+0x64>
c108107c:	e51b2010 	ldr	r2, [fp, #-16]
c1081080:	e15b31b2 	ldrh	r3, [fp, #-18]	; 0xffffffee
c1081084:	e1a00002 	mov	r0, r2
c1081088:	e1a01003 	mov	r1, r3
c108108c:	ebffff63 	bl	c1080e20 <elf64_getProgramHeaderPaddr>
c1081090:	e1a03000 	mov	r3, r0
c1081094:	e1a04001 	mov	r4, r1
c1081098:	e1a00003 	mov	r0, r3
c108109c:	e1a01004 	mov	r1, r4
c10810a0:	e24bd008 	sub	sp, fp, #8
c10810a4:	e8bd8810 	pop	{r4, fp, pc}

c10810a8 <elf_getProgramHeaderVaddr>:
c10810a8:	e92d4810 	push	{r4, fp, lr}
c10810ac:	e28db008 	add	fp, sp, #8
c10810b0:	e24dd00c 	sub	sp, sp, #12
c10810b4:	e50b0010 	str	r0, [fp, #-16]
c10810b8:	e1a03001 	mov	r3, r1
c10810bc:	e14b31b2 	strh	r3, [fp, #-18]	; 0xffffffee
c10810c0:	e51b3010 	ldr	r3, [fp, #-16]
c10810c4:	e5d33004 	ldrb	r3, [r3, #4]
c10810c8:	e3530001 	cmp	r3, #1
c10810cc:	1a000007 	bne	c10810f0 <elf_getProgramHeaderVaddr+0x48>
c10810d0:	e51b2010 	ldr	r2, [fp, #-16]
c10810d4:	e15b31b2 	ldrh	r3, [fp, #-18]	; 0xffffffee
c10810d8:	e1a00002 	mov	r0, r2
c10810dc:	e1a01003 	mov	r1, r3
c10810e0:	ebfffe7c 	bl	c1080ad8 <elf32_getProgramHeaderVaddr>
c10810e4:	e1a03000 	mov	r3, r0
c10810e8:	e3a04000 	mov	r4, #0
c10810ec:	ea000006 	b	c108110c <elf_getProgramHeaderVaddr+0x64>
c10810f0:	e51b2010 	ldr	r2, [fp, #-16]
c10810f4:	e15b31b2 	ldrh	r3, [fp, #-18]	; 0xffffffee
c10810f8:	e1a00002 	mov	r0, r2
c10810fc:	e1a01003 	mov	r1, r3
c1081100:	ebffff31 	bl	c1080dcc <elf64_getProgramHeaderVaddr>
c1081104:	e1a03000 	mov	r3, r0
c1081108:	e1a04001 	mov	r4, r1
c108110c:	e1a00003 	mov	r0, r3
c1081110:	e1a01004 	mov	r1, r4
c1081114:	e24bd008 	sub	sp, fp, #8
c1081118:	e8bd8810 	pop	{r4, fp, pc}

c108111c <elf_getProgramHeaderMemorySize>:
c108111c:	e92d4810 	push	{r4, fp, lr}
c1081120:	e28db008 	add	fp, sp, #8
c1081124:	e24dd00c 	sub	sp, sp, #12
c1081128:	e50b0010 	str	r0, [fp, #-16]
c108112c:	e1a03001 	mov	r3, r1
c1081130:	e14b31b2 	strh	r3, [fp, #-18]	; 0xffffffee
c1081134:	e51b3010 	ldr	r3, [fp, #-16]
c1081138:	e5d33004 	ldrb	r3, [r3, #4]
c108113c:	e3530001 	cmp	r3, #1
c1081140:	1a000007 	bne	c1081164 <elf_getProgramHeaderMemorySize+0x48>
c1081144:	e51b2010 	ldr	r2, [fp, #-16]
c1081148:	e15b31b2 	ldrh	r3, [fp, #-18]	; 0xffffffee
c108114c:	e1a00002 	mov	r0, r2
c1081150:	e1a01003 	mov	r1, r3
c1081154:	ebfffe4f 	bl	c1080a98 <elf32_getProgramHeaderMemorySize>
c1081158:	e1a03000 	mov	r3, r0
c108115c:	e3a04000 	mov	r4, #0
c1081160:	ea000006 	b	c1081180 <elf_getProgramHeaderMemorySize+0x64>
c1081164:	e51b2010 	ldr	r2, [fp, #-16]
c1081168:	e15b31b2 	ldrh	r3, [fp, #-18]	; 0xffffffee
c108116c:	e1a00002 	mov	r0, r2
c1081170:	e1a01003 	mov	r1, r3
c1081174:	ebfffeff 	bl	c1080d78 <elf64_getProgramHeaderMemorySize>
c1081178:	e1a03000 	mov	r3, r0
c108117c:	e1a04001 	mov	r4, r1
c1081180:	e1a00003 	mov	r0, r3
c1081184:	e1a01004 	mov	r1, r4
c1081188:	e24bd008 	sub	sp, fp, #8
c108118c:	e8bd8810 	pop	{r4, fp, pc}

c1081190 <elf_getProgramHeaderFileSize>:
c1081190:	e92d4810 	push	{r4, fp, lr}
c1081194:	e28db008 	add	fp, sp, #8
c1081198:	e24dd00c 	sub	sp, sp, #12
c108119c:	e50b0010 	str	r0, [fp, #-16]
c10811a0:	e1a03001 	mov	r3, r1
c10811a4:	e14b31b2 	strh	r3, [fp, #-18]	; 0xffffffee
c10811a8:	e51b3010 	ldr	r3, [fp, #-16]
c10811ac:	e5d33004 	ldrb	r3, [r3, #4]
c10811b0:	e3530001 	cmp	r3, #1
c10811b4:	1a000007 	bne	c10811d8 <elf_getProgramHeaderFileSize+0x48>
c10811b8:	e51b2010 	ldr	r2, [fp, #-16]
c10811bc:	e15b31b2 	ldrh	r3, [fp, #-18]	; 0xffffffee
c10811c0:	e1a00002 	mov	r0, r2
c10811c4:	e1a01003 	mov	r1, r3
c10811c8:	ebfffe22 	bl	c1080a58 <elf32_getProgramHeaderFileSize>
c10811cc:	e1a03000 	mov	r3, r0
c10811d0:	e3a04000 	mov	r4, #0
c10811d4:	ea000006 	b	c10811f4 <elf_getProgramHeaderFileSize+0x64>
c10811d8:	e51b2010 	ldr	r2, [fp, #-16]
c10811dc:	e15b31b2 	ldrh	r3, [fp, #-18]	; 0xffffffee
c10811e0:	e1a00002 	mov	r0, r2
c10811e4:	e1a01003 	mov	r1, r3
c10811e8:	ebfffecd 	bl	c1080d24 <elf64_getProgramHeaderFileSize>
c10811ec:	e1a03000 	mov	r3, r0
c10811f0:	e1a04001 	mov	r4, r1
c10811f4:	e1a00003 	mov	r0, r3
c10811f8:	e1a01004 	mov	r1, r4
c10811fc:	e24bd008 	sub	sp, fp, #8
c1081200:	e8bd8810 	pop	{r4, fp, pc}

c1081204 <elf_getProgramHeaderOffset>:
c1081204:	e92d4810 	push	{r4, fp, lr}
c1081208:	e28db008 	add	fp, sp, #8
c108120c:	e24dd00c 	sub	sp, sp, #12
c1081210:	e50b0010 	str	r0, [fp, #-16]
c1081214:	e1a03001 	mov	r3, r1
c1081218:	e14b31b2 	strh	r3, [fp, #-18]	; 0xffffffee
c108121c:	e51b3010 	ldr	r3, [fp, #-16]
c1081220:	e5d33004 	ldrb	r3, [r3, #4]
c1081224:	e3530001 	cmp	r3, #1
c1081228:	1a000007 	bne	c108124c <elf_getProgramHeaderOffset+0x48>
c108122c:	e51b2010 	ldr	r2, [fp, #-16]
c1081230:	e15b31b2 	ldrh	r3, [fp, #-18]	; 0xffffffee
c1081234:	e1a00002 	mov	r0, r2
c1081238:	e1a01003 	mov	r1, r3
c108123c:	ebfffe45 	bl	c1080b58 <elf32_getProgramHeaderOffset>
c1081240:	e1a03000 	mov	r3, r0
c1081244:	e3a04000 	mov	r4, #0
c1081248:	ea000006 	b	c1081268 <elf_getProgramHeaderOffset+0x64>
c108124c:	e51b2010 	ldr	r2, [fp, #-16]
c1081250:	e15b31b2 	ldrh	r3, [fp, #-18]	; 0xffffffee
c1081254:	e1a00002 	mov	r0, r2
c1081258:	e1a01003 	mov	r1, r3
c108125c:	ebffff04 	bl	c1080e74 <elf64_getProgramHeaderOffset>
c1081260:	e1a03000 	mov	r3, r0
c1081264:	e1a04001 	mov	r4, r1
c1081268:	e1a00003 	mov	r0, r3
c108126c:	e1a01004 	mov	r1, r4
c1081270:	e24bd008 	sub	sp, fp, #8
c1081274:	e8bd8810 	pop	{r4, fp, pc}

c1081278 <elf_getSegmentStringTable>:
c1081278:	e92d4800 	push	{fp, lr}
c108127c:	e28db004 	add	fp, sp, #4
c1081280:	e24dd008 	sub	sp, sp, #8
c1081284:	e50b0008 	str	r0, [fp, #-8]
c1081288:	e51b3008 	ldr	r3, [fp, #-8]
c108128c:	e5d33004 	ldrb	r3, [r3, #4]
c1081290:	e3530001 	cmp	r3, #1
c1081294:	1a000004 	bne	c10812ac <elf_getSegmentStringTable+0x34>
c1081298:	e51b3008 	ldr	r3, [fp, #-8]
c108129c:	e1a00003 	mov	r0, r3
c10812a0:	eb0003ab 	bl	c1082154 <elf32_getSegmentStringTable>
c10812a4:	e1a03000 	mov	r3, r0
c10812a8:	ea000002 	b	c10812b8 <elf_getSegmentStringTable+0x40>
c10812ac:	e51b0008 	ldr	r0, [fp, #-8]
c10812b0:	eb000558 	bl	c1082818 <elf64_getSegmentStringTable>
c10812b4:	e1a03000 	mov	r3, r0
c10812b8:	e1a00003 	mov	r0, r3
c10812bc:	e24bd004 	sub	sp, fp, #4
c10812c0:	e8bd8800 	pop	{fp, pc}

c10812c4 <elf_getStringTable>:
c10812c4:	e92d4800 	push	{fp, lr}
c10812c8:	e28db004 	add	fp, sp, #4
c10812cc:	e24dd008 	sub	sp, sp, #8
c10812d0:	e50b0008 	str	r0, [fp, #-8]
c10812d4:	e50b100c 	str	r1, [fp, #-12]
c10812d8:	e51b3008 	ldr	r3, [fp, #-8]
c10812dc:	e5d33004 	ldrb	r3, [r3, #4]
c10812e0:	e3530001 	cmp	r3, #1
c10812e4:	1a000004 	bne	c10812fc <elf_getStringTable+0x38>
c10812e8:	e51b3008 	ldr	r3, [fp, #-8]
c10812ec:	e1a00003 	mov	r0, r3
c10812f0:	eb0002dd 	bl	c1081e6c <elf32_getStringTable>
c10812f4:	e1a03000 	mov	r3, r0
c10812f8:	ea000003 	b	c108130c <elf_getStringTable+0x48>
c10812fc:	e51b0008 	ldr	r0, [fp, #-8]
c1081300:	e51b100c 	ldr	r1, [fp, #-12]
c1081304:	eb00052e 	bl	c10827c4 <elf64_getStringTable>
c1081308:	e1a03000 	mov	r3, r0
c108130c:	e1a00003 	mov	r0, r3
c1081310:	e24bd004 	sub	sp, fp, #4
c1081314:	e8bd8800 	pop	{fp, pc}

c1081318 <elf_getNumSections>:
c1081318:	e92d4800 	push	{fp, lr}
c108131c:	e28db004 	add	fp, sp, #4
c1081320:	e24dd008 	sub	sp, sp, #8
c1081324:	e50b0008 	str	r0, [fp, #-8]
c1081328:	e51b3008 	ldr	r3, [fp, #-8]
c108132c:	e5d33004 	ldrb	r3, [r3, #4]
c1081330:	e3530001 	cmp	r3, #1
c1081334:	1a000004 	bne	c108134c <elf_getNumSections+0x34>
c1081338:	e51b3008 	ldr	r3, [fp, #-8]
c108133c:	e1a00003 	mov	r0, r3
c1081340:	eb0002bf 	bl	c1081e44 <elf32_getNumSections>
c1081344:	e1a03000 	mov	r3, r0
c1081348:	ea000002 	b	c1081358 <elf_getNumSections+0x40>
c108134c:	e51b0008 	ldr	r0, [fp, #-8]
c1081350:	eb00050f 	bl	c1082794 <elf64_getNumSections>
c1081354:	e1a03000 	mov	r3, r0
c1081358:	e1a00003 	mov	r0, r3
c108135c:	e24bd004 	sub	sp, fp, #4
c1081360:	e8bd8800 	pop	{fp, pc}

c1081364 <elf_getSectionName>:
c1081364:	e92d4800 	push	{fp, lr}
c1081368:	e28db004 	add	fp, sp, #4
c108136c:	e24dd008 	sub	sp, sp, #8
c1081370:	e50b0008 	str	r0, [fp, #-8]
c1081374:	e50b100c 	str	r1, [fp, #-12]
c1081378:	e51b3008 	ldr	r3, [fp, #-8]
c108137c:	e5d33004 	ldrb	r3, [r3, #4]
c1081380:	e3530001 	cmp	r3, #1
c1081384:	1a000005 	bne	c10813a0 <elf_getSectionName+0x3c>
c1081388:	e51b3008 	ldr	r3, [fp, #-8]
c108138c:	e1a00003 	mov	r0, r3
c1081390:	e51b100c 	ldr	r1, [fp, #-12]
c1081394:	eb0002e6 	bl	c1081f34 <elf32_getSectionName>
c1081398:	e1a03000 	mov	r3, r0
c108139c:	ea000003 	b	c10813b0 <elf_getSectionName+0x4c>
c10813a0:	e51b0008 	ldr	r0, [fp, #-8]
c10813a4:	e51b100c 	ldr	r1, [fp, #-12]
c10813a8:	eb00052f 	bl	c108286c <elf64_getSectionName>
c10813ac:	e1a03000 	mov	r3, r0
c10813b0:	e1a00003 	mov	r0, r3
c10813b4:	e24bd004 	sub	sp, fp, #4
c10813b8:	e8bd8800 	pop	{fp, pc}

c10813bc <elf_getSectionFlags>:
c10813bc:	e92d4800 	push	{fp, lr}
c10813c0:	e28db004 	add	fp, sp, #4
c10813c4:	e24dd008 	sub	sp, sp, #8
c10813c8:	e50b0008 	str	r0, [fp, #-8]
c10813cc:	e50b100c 	str	r1, [fp, #-12]
c10813d0:	e51b3008 	ldr	r3, [fp, #-8]
c10813d4:	e5d33004 	ldrb	r3, [r3, #4]
c10813d8:	e3530001 	cmp	r3, #1
c10813dc:	1a000008 	bne	c1081404 <elf_getSectionFlags+0x48>
c10813e0:	e51b2008 	ldr	r2, [fp, #-8]
c10813e4:	e51b300c 	ldr	r3, [fp, #-12]
c10813e8:	e1a03803 	lsl	r3, r3, #16
c10813ec:	e1a03823 	lsr	r3, r3, #16
c10813f0:	e1a00002 	mov	r0, r2
c10813f4:	e1a01003 	mov	r1, r3
c10813f8:	ebfffd57 	bl	c108095c <elf32_getSectionFlags>
c10813fc:	e1a03000 	mov	r3, r0
c1081400:	ea000007 	b	c1081424 <elf_getSectionFlags+0x68>
c1081404:	e51b2008 	ldr	r2, [fp, #-8]
c1081408:	e51b300c 	ldr	r3, [fp, #-12]
c108140c:	e1a03803 	lsl	r3, r3, #16
c1081410:	e1a03823 	lsr	r3, r3, #16
c1081414:	e1a00002 	mov	r0, r2
c1081418:	e1a01003 	mov	r1, r3
c108141c:	ebfffdfb 	bl	c1080c10 <elf64_getSectionFlags>
c1081420:	e1a03000 	mov	r3, r0
c1081424:	e1a00003 	mov	r0, r3
c1081428:	e24bd004 	sub	sp, fp, #4
c108142c:	e8bd8800 	pop	{fp, pc}

c1081430 <elf_getSectionType>:
c1081430:	e92d4800 	push	{fp, lr}
c1081434:	e28db004 	add	fp, sp, #4
c1081438:	e24dd008 	sub	sp, sp, #8
c108143c:	e50b0008 	str	r0, [fp, #-8]
c1081440:	e50b100c 	str	r1, [fp, #-12]
c1081444:	e51b3008 	ldr	r3, [fp, #-8]
c1081448:	e5d33004 	ldrb	r3, [r3, #4]
c108144c:	e3530001 	cmp	r3, #1
c1081450:	1a000008 	bne	c1081478 <elf_getSectionType+0x48>
c1081454:	e51b2008 	ldr	r2, [fp, #-8]
c1081458:	e51b300c 	ldr	r3, [fp, #-12]
c108145c:	e1a03803 	lsl	r3, r3, #16
c1081460:	e1a03823 	lsr	r3, r3, #16
c1081464:	e1a00002 	mov	r0, r2
c1081468:	e1a01003 	mov	r1, r3
c108146c:	ebfffd27 	bl	c1080910 <elf32_getSectionType>
c1081470:	e1a03000 	mov	r3, r0
c1081474:	ea000007 	b	c1081498 <elf_getSectionType+0x68>
c1081478:	e51b2008 	ldr	r2, [fp, #-8]
c108147c:	e51b300c 	ldr	r3, [fp, #-12]
c1081480:	e1a03803 	lsl	r3, r3, #16
c1081484:	e1a03823 	lsr	r3, r3, #16
c1081488:	e1a00002 	mov	r0, r2
c108148c:	e1a01003 	mov	r1, r3
c1081490:	ebfffdce 	bl	c1080bd0 <elf64_getSectionType>
c1081494:	e1a03000 	mov	r3, r0
c1081498:	e1a00003 	mov	r0, r3
c108149c:	e24bd004 	sub	sp, fp, #4
c10814a0:	e8bd8800 	pop	{fp, pc}

c10814a4 <elf_getSectionSize>:
c10814a4:	e92d4810 	push	{r4, fp, lr}
c10814a8:	e28db008 	add	fp, sp, #8
c10814ac:	e24dd00c 	sub	sp, sp, #12
c10814b0:	e50b0010 	str	r0, [fp, #-16]
c10814b4:	e50b1014 	str	r1, [fp, #-20]
c10814b8:	e51b3010 	ldr	r3, [fp, #-16]
c10814bc:	e5d33004 	ldrb	r3, [r3, #4]
c10814c0:	e3530001 	cmp	r3, #1
c10814c4:	1a000006 	bne	c10814e4 <elf_getSectionSize+0x40>
c10814c8:	e51b3010 	ldr	r3, [fp, #-16]
c10814cc:	e1a00003 	mov	r0, r3
c10814d0:	e51b1014 	ldr	r1, [fp, #-20]
c10814d4:	eb0002b7 	bl	c1081fb8 <elf32_getSectionSize>
c10814d8:	e1a03000 	mov	r3, r0
c10814dc:	e3a04000 	mov	r4, #0
c10814e0:	ea000004 	b	c10814f8 <elf_getSectionSize+0x54>
c10814e4:	e51b0010 	ldr	r0, [fp, #-16]
c10814e8:	e51b1014 	ldr	r1, [fp, #-20]
c10814ec:	eb0004fc 	bl	c10828e4 <elf64_getSectionSize>
c10814f0:	e1a03000 	mov	r3, r0
c10814f4:	e1a04001 	mov	r4, r1
c10814f8:	e1a00003 	mov	r0, r3
c10814fc:	e1a01004 	mov	r1, r4
c1081500:	e24bd008 	sub	sp, fp, #8
c1081504:	e8bd8810 	pop	{r4, fp, pc}

c1081508 <elf_getSectionAddr>:
c1081508:	e92d4810 	push	{r4, fp, lr}
c108150c:	e28db008 	add	fp, sp, #8
c1081510:	e24dd00c 	sub	sp, sp, #12
c1081514:	e50b0010 	str	r0, [fp, #-16]
c1081518:	e50b1014 	str	r1, [fp, #-20]
c108151c:	e51b3010 	ldr	r3, [fp, #-16]
c1081520:	e5d33004 	ldrb	r3, [r3, #4]
c1081524:	e3530001 	cmp	r3, #1
c1081528:	1a000006 	bne	c1081548 <elf_getSectionAddr+0x40>
c108152c:	e51b3010 	ldr	r3, [fp, #-16]
c1081530:	e1a00003 	mov	r0, r3
c1081534:	e51b1014 	ldr	r1, [fp, #-20]
c1081538:	eb0002b3 	bl	c108200c <elf32_getSectionAddr>
c108153c:	e1a03000 	mov	r3, r0
c1081540:	e3a04000 	mov	r4, #0
c1081544:	ea000005 	b	c1081560 <elf_getSectionAddr+0x58>
c1081548:	e51b3010 	ldr	r3, [fp, #-16]
c108154c:	e1a00003 	mov	r0, r3
c1081550:	e51b1014 	ldr	r1, [fp, #-20]
c1081554:	eb0004f6 	bl	c1082934 <elf64_getSectionAddr>
c1081558:	e1a03000 	mov	r3, r0
c108155c:	e1a04001 	mov	r4, r1
c1081560:	e1a00003 	mov	r0, r3
c1081564:	e1a01004 	mov	r1, r4
c1081568:	e24bd008 	sub	sp, fp, #8
c108156c:	e8bd8810 	pop	{r4, fp, pc}

c1081570 <elf_getSection>:
c1081570:	e92d4800 	push	{fp, lr}
c1081574:	e28db004 	add	fp, sp, #4
c1081578:	e24dd008 	sub	sp, sp, #8
c108157c:	e50b0008 	str	r0, [fp, #-8]
c1081580:	e50b100c 	str	r1, [fp, #-12]
c1081584:	e51b3008 	ldr	r3, [fp, #-8]
c1081588:	e5d33004 	ldrb	r3, [r3, #4]
c108158c:	e3530001 	cmp	r3, #1
c1081590:	1a000005 	bne	c10815ac <elf_getSection+0x3c>
c1081594:	e51b3008 	ldr	r3, [fp, #-8]
c1081598:	e1a00003 	mov	r0, r3
c108159c:	e51b100c 	ldr	r1, [fp, #-12]
c10815a0:	eb0002ae 	bl	c1082060 <elf32_getSection>
c10815a4:	e1a03000 	mov	r3, r0
c10815a8:	ea000003 	b	c10815bc <elf_getSection+0x4c>
c10815ac:	e51b0008 	ldr	r0, [fp, #-8]
c10815b0:	e51b100c 	ldr	r1, [fp, #-12]
c10815b4:	eb0004f1 	bl	c1082980 <elf64_getSection>
c10815b8:	e1a03000 	mov	r3, r0
c10815bc:	e1a00003 	mov	r0, r3
c10815c0:	e24bd004 	sub	sp, fp, #4
c10815c4:	e8bd8800 	pop	{fp, pc}

c10815c8 <elf_getSectionNamed>:
c10815c8:	e92d4800 	push	{fp, lr}
c10815cc:	e28db004 	add	fp, sp, #4
c10815d0:	e24dd008 	sub	sp, sp, #8
c10815d4:	e50b0008 	str	r0, [fp, #-8]
c10815d8:	e50b100c 	str	r1, [fp, #-12]
c10815dc:	e51b3008 	ldr	r3, [fp, #-8]
c10815e0:	e5d33004 	ldrb	r3, [r3, #4]
c10815e4:	e3530001 	cmp	r3, #1
c10815e8:	1a000005 	bne	c1081604 <elf_getSectionNamed+0x3c>
c10815ec:	e51b3008 	ldr	r3, [fp, #-8]
c10815f0:	e1a00003 	mov	r0, r3
c10815f4:	e51b100c 	ldr	r1, [fp, #-12]
c10815f8:	eb0002af 	bl	c10820bc <elf32_getSectionNamed>
c10815fc:	e1a03000 	mov	r3, r0
c1081600:	ea000003 	b	c1081614 <elf_getSectionNamed+0x4c>
c1081604:	e51b0008 	ldr	r0, [fp, #-8]
c1081608:	e51b100c 	ldr	r1, [fp, #-12]
c108160c:	eb0004f1 	bl	c10829d8 <elf64_getSectionNamed>
c1081610:	e1a03000 	mov	r3, r0
c1081614:	e1a00003 	mov	r0, r3
c1081618:	e24bd004 	sub	sp, fp, #4
c108161c:	e8bd8800 	pop	{fp, pc}

c1081620 <elf_getProgramHeaderInfo>:
c1081620:	e92d4810 	push	{r4, fp, lr}
c1081624:	e28db008 	add	fp, sp, #8
c1081628:	e24dd014 	sub	sp, sp, #20
c108162c:	e50b0010 	str	r0, [fp, #-16]
c1081630:	e50b2018 	str	r2, [fp, #-24]
c1081634:	e50b301c 	str	r3, [fp, #-28]
c1081638:	e14b11b2 	strh	r1, [fp, #-18]	; 0xffffffee
c108163c:	e15b31b2 	ldrh	r3, [fp, #-18]	; 0xffffffee
c1081640:	e51b0010 	ldr	r0, [fp, #-16]
c1081644:	e1a01003 	mov	r1, r3
c1081648:	ebfffe96 	bl	c10810a8 <elf_getProgramHeaderVaddr>
c108164c:	e1a03000 	mov	r3, r0
c1081650:	e1a04001 	mov	r4, r1
c1081654:	e51b2018 	ldr	r2, [fp, #-24]
c1081658:	e8820018 	stm	r2, {r3, r4}
c108165c:	e15b31b2 	ldrh	r3, [fp, #-18]	; 0xffffffee
c1081660:	e51b0010 	ldr	r0, [fp, #-16]
c1081664:	e1a01003 	mov	r1, r3
c1081668:	ebfffe71 	bl	c1081034 <elf_getProgramHeaderPaddr>
c108166c:	e1a03000 	mov	r3, r0
c1081670:	e1a04001 	mov	r4, r1
c1081674:	e51b201c 	ldr	r2, [fp, #-28]
c1081678:	e8820018 	stm	r2, {r3, r4}
c108167c:	e15b31b2 	ldrh	r3, [fp, #-18]	; 0xffffffee
c1081680:	e51b0010 	ldr	r0, [fp, #-16]
c1081684:	e1a01003 	mov	r1, r3
c1081688:	ebfffec0 	bl	c1081190 <elf_getProgramHeaderFileSize>
c108168c:	e1a03000 	mov	r3, r0
c1081690:	e1a04001 	mov	r4, r1
c1081694:	e59b2004 	ldr	r2, [fp, #4]
c1081698:	e8820018 	stm	r2, {r3, r4}
c108169c:	e15b31b2 	ldrh	r3, [fp, #-18]	; 0xffffffee
c10816a0:	e51b0010 	ldr	r0, [fp, #-16]
c10816a4:	e1a01003 	mov	r1, r3
c10816a8:	ebfffed5 	bl	c1081204 <elf_getProgramHeaderOffset>
c10816ac:	e1a03000 	mov	r3, r0
c10816b0:	e1a04001 	mov	r4, r1
c10816b4:	e59b2008 	ldr	r2, [fp, #8]
c10816b8:	e8820018 	stm	r2, {r3, r4}
c10816bc:	e15b31b2 	ldrh	r3, [fp, #-18]	; 0xffffffee
c10816c0:	e51b0010 	ldr	r0, [fp, #-16]
c10816c4:	e1a01003 	mov	r1, r3
c10816c8:	ebfffe93 	bl	c108111c <elf_getProgramHeaderMemorySize>
c10816cc:	e1a03000 	mov	r3, r0
c10816d0:	e1a04001 	mov	r4, r1
c10816d4:	e59b200c 	ldr	r2, [fp, #12]
c10816d8:	e8820018 	stm	r2, {r3, r4}
c10816dc:	e24bd008 	sub	sp, fp, #8
c10816e0:	e8bd8810 	pop	{r4, fp, pc}

c10816e4 <elf_getEntryPoint>:
c10816e4:	e92d4810 	push	{r4, fp, lr}
c10816e8:	e28db008 	add	fp, sp, #8
c10816ec:	e24dd00c 	sub	sp, sp, #12
c10816f0:	e50b0010 	str	r0, [fp, #-16]
c10816f4:	e51b3010 	ldr	r3, [fp, #-16]
c10816f8:	e5d33004 	ldrb	r3, [r3, #4]
c10816fc:	e3530001 	cmp	r3, #1
c1081700:	1a000005 	bne	c108171c <elf_getEntryPoint+0x38>
c1081704:	e51b3010 	ldr	r3, [fp, #-16]
c1081708:	e1a00003 	mov	r0, r3
c108170c:	eb0002e6 	bl	c10822ac <elf32_getEntryPoint>
c1081710:	e1a03000 	mov	r3, r0
c1081714:	e3a04000 	mov	r4, #0
c1081718:	ea000004 	b	c1081730 <elf_getEntryPoint+0x4c>
c108171c:	e51b3010 	ldr	r3, [fp, #-16]
c1081720:	e1a00003 	mov	r0, r3
c1081724:	eb000536 	bl	c1082c04 <elf64_getEntryPoint>
c1081728:	e1a03000 	mov	r3, r0
c108172c:	e1a04001 	mov	r4, r1
c1081730:	e1a00003 	mov	r0, r3
c1081734:	e1a01004 	mov	r1, r4
c1081738:	e24bd008 	sub	sp, fp, #8
c108173c:	e8bd8810 	pop	{r4, fp, pc}

c1081740 <elf_fprintf>:
c1081740:	e92d4800 	push	{fp, lr}
c1081744:	e28db004 	add	fp, sp, #4
c1081748:	e24dd018 	sub	sp, sp, #24
c108174c:	e50b0008 	str	r0, [fp, #-8]
c1081750:	e50b100c 	str	r1, [fp, #-12]
c1081754:	e50b2010 	str	r2, [fp, #-16]
c1081758:	e50b3014 	str	r3, [fp, #-20]
c108175c:	e51b300c 	ldr	r3, [fp, #-12]
c1081760:	e59b2004 	ldr	r2, [fp, #4]
c1081764:	e58d2000 	str	r2, [sp]
c1081768:	e51b0008 	ldr	r0, [fp, #-8]
c108176c:	e1a01003 	mov	r1, r3
c1081770:	e51b2010 	ldr	r2, [fp, #-16]
c1081774:	e51b3014 	ldr	r3, [fp, #-20]
c1081778:	eb0002d5 	bl	c10822d4 <elf32_fprintf>
c108177c:	e24bd004 	sub	sp, fp, #4
c1081780:	e8bd8800 	pop	{fp, pc}

c1081784 <elf_getMemoryBounds>:
c1081784:	e92d4810 	push	{r4, fp, lr}
c1081788:	e28db008 	add	fp, sp, #8
c108178c:	e24dd03c 	sub	sp, sp, #60	; 0x3c
c1081790:	e50b0038 	str	r0, [fp, #-56]	; 0x38
c1081794:	e50b2040 	str	r2, [fp, #-64]	; 0x40
c1081798:	e50b3044 	str	r3, [fp, #-68]	; 0x44
c108179c:	e1a03001 	mov	r3, r1
c10817a0:	e54b3039 	strb	r3, [fp, #-57]	; 0x39
c10817a4:	e3e03000 	mvn	r3, #0
c10817a8:	e3e04000 	mvn	r4, #0
c10817ac:	e50b3034 	str	r3, [fp, #-52]	; 0x34
c10817b0:	e50b4030 	str	r4, [fp, #-48]	; 0x30
c10817b4:	e3a03000 	mov	r3, #0
c10817b8:	e3a04000 	mov	r4, #0
c10817bc:	e50b302c 	str	r3, [fp, #-44]	; 0x2c
c10817c0:	e50b4028 	str	r4, [fp, #-40]	; 0x28
c10817c4:	e51b0038 	ldr	r0, [fp, #-56]	; 0x38
c10817c8:	ebfffdbe 	bl	c1080ec8 <elf_checkFile>
c10817cc:	e1a03000 	mov	r3, r0
c10817d0:	e3530000 	cmp	r3, #0
c10817d4:	0a000001 	beq	c10817e0 <elf_getMemoryBounds+0x5c>
c10817d8:	e3a03000 	mov	r3, #0
c10817dc:	ea000071 	b	c10819a8 <elf_getMemoryBounds+0x224>
c10817e0:	e3a03000 	mov	r3, #0
c10817e4:	e50b3020 	str	r3, [fp, #-32]
c10817e8:	ea00005e 	b	c1081968 <elf_getMemoryBounds+0x1e4>
c10817ec:	e51b3020 	ldr	r3, [fp, #-32]
c10817f0:	e1a03803 	lsl	r3, r3, #16
c10817f4:	e1a03823 	lsr	r3, r3, #16
c10817f8:	e51b0038 	ldr	r0, [fp, #-56]	; 0x38
c10817fc:	e1a01003 	mov	r1, r3
c1081800:	ebfffe45 	bl	c108111c <elf_getProgramHeaderMemorySize>
c1081804:	e1a02001 	mov	r2, r1
c1081808:	e1a01000 	mov	r1, r0
c108180c:	e1a03001 	mov	r3, r1
c1081810:	e1833002 	orr	r3, r3, r2
c1081814:	e3530000 	cmp	r3, #0
c1081818:	0a00004e 	beq	c1081958 <elf_getMemoryBounds+0x1d4>
c108181c:	e55b3039 	ldrb	r3, [fp, #-57]	; 0x39
c1081820:	e3530000 	cmp	r3, #0
c1081824:	0a00000a 	beq	c1081854 <elf_getMemoryBounds+0xd0>
c1081828:	e51b3020 	ldr	r3, [fp, #-32]
c108182c:	e1a03803 	lsl	r3, r3, #16
c1081830:	e1a03823 	lsr	r3, r3, #16
c1081834:	e51b0038 	ldr	r0, [fp, #-56]	; 0x38
c1081838:	e1a01003 	mov	r1, r3
c108183c:	ebfffdfc 	bl	c1081034 <elf_getProgramHeaderPaddr>
c1081840:	e1a03000 	mov	r3, r0
c1081844:	e1a04001 	mov	r4, r1
c1081848:	e50b301c 	str	r3, [fp, #-28]
c108184c:	e50b4018 	str	r4, [fp, #-24]
c1081850:	ea000009 	b	c108187c <elf_getMemoryBounds+0xf8>
c1081854:	e51b3020 	ldr	r3, [fp, #-32]
c1081858:	e1a03803 	lsl	r3, r3, #16
c108185c:	e1a03823 	lsr	r3, r3, #16
c1081860:	e51b0038 	ldr	r0, [fp, #-56]	; 0x38
c1081864:	e1a01003 	mov	r1, r3
c1081868:	ebfffe0e 	bl	c10810a8 <elf_getProgramHeaderVaddr>
c108186c:	e1a03000 	mov	r3, r0
c1081870:	e1a04001 	mov	r4, r1
c1081874:	e50b301c 	str	r3, [fp, #-28]
c1081878:	e50b4018 	str	r4, [fp, #-24]
c108187c:	e51b3020 	ldr	r3, [fp, #-32]
c1081880:	e1a03803 	lsl	r3, r3, #16
c1081884:	e1a03823 	lsr	r3, r3, #16
c1081888:	e51b0038 	ldr	r0, [fp, #-56]	; 0x38
c108188c:	e1a01003 	mov	r1, r3
c1081890:	ebfffe21 	bl	c108111c <elf_getProgramHeaderMemorySize>
c1081894:	e1a02001 	mov	r2, r1
c1081898:	e1a01000 	mov	r1, r0
c108189c:	e24b401c 	sub	r4, fp, #28
c10818a0:	e8940018 	ldm	r4, {r3, r4}
c10818a4:	e0933001 	adds	r3, r3, r1
c10818a8:	e0a44002 	adc	r4, r4, r2
c10818ac:	e50b3014 	str	r3, [fp, #-20]
c10818b0:	e50b4010 	str	r4, [fp, #-16]
c10818b4:	e51b2010 	ldr	r2, [fp, #-16]
c10818b8:	e51b3028 	ldr	r3, [fp, #-40]	; 0x28
c10818bc:	e1520003 	cmp	r2, r3
c10818c0:	8a00000b 	bhi	c10818f4 <elf_getMemoryBounds+0x170>
c10818c4:	e51b2010 	ldr	r2, [fp, #-16]
c10818c8:	e51b3028 	ldr	r3, [fp, #-40]	; 0x28
c10818cc:	e1520003 	cmp	r2, r3
c10818d0:	1a00000b 	bne	c1081904 <elf_getMemoryBounds+0x180>
c10818d4:	e51b2014 	ldr	r2, [fp, #-20]
c10818d8:	e51b302c 	ldr	r3, [fp, #-44]	; 0x2c
c10818dc:	e1520003 	cmp	r2, r3
c10818e0:	8a000003 	bhi	c10818f4 <elf_getMemoryBounds+0x170>
c10818e4:	e51b2014 	ldr	r2, [fp, #-20]
c10818e8:	e51b302c 	ldr	r3, [fp, #-44]	; 0x2c
c10818ec:	e1520003 	cmp	r2, r3
c10818f0:	ea000003 	b	c1081904 <elf_getMemoryBounds+0x180>
c10818f4:	e24b4014 	sub	r4, fp, #20
c10818f8:	e8940018 	ldm	r4, {r3, r4}
c10818fc:	e50b302c 	str	r3, [fp, #-44]	; 0x2c
c1081900:	e50b4028 	str	r4, [fp, #-40]	; 0x28
c1081904:	e51b2030 	ldr	r2, [fp, #-48]	; 0x30
c1081908:	e51b3018 	ldr	r3, [fp, #-24]
c108190c:	e1520003 	cmp	r2, r3
c1081910:	8a00000b 	bhi	c1081944 <elf_getMemoryBounds+0x1c0>
c1081914:	e51b2030 	ldr	r2, [fp, #-48]	; 0x30
c1081918:	e51b3018 	ldr	r3, [fp, #-24]
c108191c:	e1520003 	cmp	r2, r3
c1081920:	1a00000d 	bne	c108195c <elf_getMemoryBounds+0x1d8>
c1081924:	e51b2034 	ldr	r2, [fp, #-52]	; 0x34
c1081928:	e51b301c 	ldr	r3, [fp, #-28]
c108192c:	e1520003 	cmp	r2, r3
c1081930:	8a000003 	bhi	c1081944 <elf_getMemoryBounds+0x1c0>
c1081934:	e51b2034 	ldr	r2, [fp, #-52]	; 0x34
c1081938:	e51b301c 	ldr	r3, [fp, #-28]
c108193c:	e1520003 	cmp	r2, r3
c1081940:	ea000005 	b	c108195c <elf_getMemoryBounds+0x1d8>
c1081944:	e24b401c 	sub	r4, fp, #28
c1081948:	e8940018 	ldm	r4, {r3, r4}
c108194c:	e50b3034 	str	r3, [fp, #-52]	; 0x34
c1081950:	e50b4030 	str	r4, [fp, #-48]	; 0x30
c1081954:	ea000000 	b	c108195c <elf_getMemoryBounds+0x1d8>
c1081958:	e1a00000 	nop			; (mov r0, r0)
c108195c:	e51b3020 	ldr	r3, [fp, #-32]
c1081960:	e2833001 	add	r3, r3, #1
c1081964:	e50b3020 	str	r3, [fp, #-32]
c1081968:	e51b0038 	ldr	r0, [fp, #-56]	; 0x38
c108196c:	ebfffd68 	bl	c1080f14 <elf_getNumProgramHeaders>
c1081970:	e1a03000 	mov	r3, r0
c1081974:	e1a02003 	mov	r2, r3
c1081978:	e51b3020 	ldr	r3, [fp, #-32]
c108197c:	e1520003 	cmp	r2, r3
c1081980:	caffff99 	bgt	c10817ec <elf_getMemoryBounds+0x68>
c1081984:	e51b2040 	ldr	r2, [fp, #-64]	; 0x40
c1081988:	e24b4034 	sub	r4, fp, #52	; 0x34
c108198c:	e8940018 	ldm	r4, {r3, r4}
c1081990:	e8820018 	stm	r2, {r3, r4}
c1081994:	e51b2044 	ldr	r2, [fp, #-68]	; 0x44
c1081998:	e24b402c 	sub	r4, fp, #44	; 0x2c
c108199c:	e8940018 	ldm	r4, {r3, r4}
c10819a0:	e8820018 	stm	r2, {r3, r4}
c10819a4:	e3a03001 	mov	r3, #1
c10819a8:	e1a00003 	mov	r0, r3
c10819ac:	e24bd008 	sub	sp, fp, #8
c10819b0:	e8bd8810 	pop	{r4, fp, pc}

c10819b4 <elf_vaddrInProgramHeader>:
c10819b4:	e92d4810 	push	{r4, fp, lr}
c10819b8:	e28db008 	add	fp, sp, #8
c10819bc:	e24dd024 	sub	sp, sp, #36	; 0x24
c10819c0:	e50b0020 	str	r0, [fp, #-32]
c10819c4:	e50b202c 	str	r2, [fp, #-44]	; 0x2c
c10819c8:	e50b3028 	str	r3, [fp, #-40]	; 0x28
c10819cc:	e14b12b2 	strh	r1, [fp, #-34]	; 0xffffffde
c10819d0:	e15b32b2 	ldrh	r3, [fp, #-34]	; 0xffffffde
c10819d4:	e51b0020 	ldr	r0, [fp, #-32]
c10819d8:	e1a01003 	mov	r1, r3
c10819dc:	ebfffdb1 	bl	c10810a8 <elf_getProgramHeaderVaddr>
c10819e0:	e1a03000 	mov	r3, r0
c10819e4:	e1a04001 	mov	r4, r1
c10819e8:	e50b301c 	str	r3, [fp, #-28]
c10819ec:	e50b4018 	str	r4, [fp, #-24]
c10819f0:	e15b32b2 	ldrh	r3, [fp, #-34]	; 0xffffffde
c10819f4:	e51b0020 	ldr	r0, [fp, #-32]
c10819f8:	e1a01003 	mov	r1, r3
c10819fc:	ebfffdc6 	bl	c108111c <elf_getProgramHeaderMemorySize>
c1081a00:	e1a02001 	mov	r2, r1
c1081a04:	e1a01000 	mov	r1, r0
c1081a08:	e24b401c 	sub	r4, fp, #28
c1081a0c:	e8940018 	ldm	r4, {r3, r4}
c1081a10:	e0933001 	adds	r3, r3, r1
c1081a14:	e0a44002 	adc	r4, r4, r2
c1081a18:	e50b3014 	str	r3, [fp, #-20]
c1081a1c:	e50b4010 	str	r4, [fp, #-16]
c1081a20:	e51b2018 	ldr	r2, [fp, #-24]
c1081a24:	e51b3028 	ldr	r3, [fp, #-40]	; 0x28
c1081a28:	e1520003 	cmp	r2, r3
c1081a2c:	8a00001c 	bhi	c1081aa4 <elf_vaddrInProgramHeader+0xf0>
c1081a30:	e51b2018 	ldr	r2, [fp, #-24]
c1081a34:	e51b3028 	ldr	r3, [fp, #-40]	; 0x28
c1081a38:	e1520003 	cmp	r2, r3
c1081a3c:	1a000006 	bne	c1081a5c <elf_vaddrInProgramHeader+0xa8>
c1081a40:	e51b201c 	ldr	r2, [fp, #-28]
c1081a44:	e51b302c 	ldr	r3, [fp, #-44]	; 0x2c
c1081a48:	e1520003 	cmp	r2, r3
c1081a4c:	8a000014 	bhi	c1081aa4 <elf_vaddrInProgramHeader+0xf0>
c1081a50:	e51b201c 	ldr	r2, [fp, #-28]
c1081a54:	e51b302c 	ldr	r3, [fp, #-44]	; 0x2c
c1081a58:	e1520003 	cmp	r2, r3
c1081a5c:	e51b2010 	ldr	r2, [fp, #-16]
c1081a60:	e51b3028 	ldr	r3, [fp, #-40]	; 0x28
c1081a64:	e1520003 	cmp	r2, r3
c1081a68:	8a00000b 	bhi	c1081a9c <elf_vaddrInProgramHeader+0xe8>
c1081a6c:	e51b2010 	ldr	r2, [fp, #-16]
c1081a70:	e51b3028 	ldr	r3, [fp, #-40]	; 0x28
c1081a74:	e1520003 	cmp	r2, r3
c1081a78:	1a000009 	bne	c1081aa4 <elf_vaddrInProgramHeader+0xf0>
c1081a7c:	e51b2014 	ldr	r2, [fp, #-20]
c1081a80:	e51b302c 	ldr	r3, [fp, #-44]	; 0x2c
c1081a84:	e1520003 	cmp	r2, r3
c1081a88:	8a000003 	bhi	c1081a9c <elf_vaddrInProgramHeader+0xe8>
c1081a8c:	e51b2014 	ldr	r2, [fp, #-20]
c1081a90:	e51b302c 	ldr	r3, [fp, #-44]	; 0x2c
c1081a94:	e1520003 	cmp	r2, r3
c1081a98:	ea000001 	b	c1081aa4 <elf_vaddrInProgramHeader+0xf0>
c1081a9c:	e3a03001 	mov	r3, #1
c1081aa0:	ea000000 	b	c1081aa8 <elf_vaddrInProgramHeader+0xf4>
c1081aa4:	e3a03000 	mov	r3, #0
c1081aa8:	e1a00003 	mov	r0, r3
c1081aac:	e24bd008 	sub	sp, fp, #8
c1081ab0:	e8bd8810 	pop	{r4, fp, pc}

c1081ab4 <elf_vtopProgramHeader>:
c1081ab4:	e92d4810 	push	{r4, fp, lr}
c1081ab8:	e28db008 	add	fp, sp, #8
c1081abc:	e24dd02c 	sub	sp, sp, #44	; 0x2c
c1081ac0:	e50b0028 	str	r0, [fp, #-40]	; 0x28
c1081ac4:	e50b2034 	str	r2, [fp, #-52]	; 0x34
c1081ac8:	e50b3030 	str	r3, [fp, #-48]	; 0x30
c1081acc:	e14b12ba 	strh	r1, [fp, #-42]	; 0xffffffd6
c1081ad0:	e15b32ba 	ldrh	r3, [fp, #-42]	; 0xffffffd6
c1081ad4:	e51b0028 	ldr	r0, [fp, #-40]	; 0x28
c1081ad8:	e1a01003 	mov	r1, r3
c1081adc:	ebfffd54 	bl	c1081034 <elf_getProgramHeaderPaddr>
c1081ae0:	e1a03000 	mov	r3, r0
c1081ae4:	e1a04001 	mov	r4, r1
c1081ae8:	e50b3024 	str	r3, [fp, #-36]	; 0x24
c1081aec:	e50b4020 	str	r4, [fp, #-32]
c1081af0:	e15b32ba 	ldrh	r3, [fp, #-42]	; 0xffffffd6
c1081af4:	e51b0028 	ldr	r0, [fp, #-40]	; 0x28
c1081af8:	e1a01003 	mov	r1, r3
c1081afc:	ebfffd69 	bl	c10810a8 <elf_getProgramHeaderVaddr>
c1081b00:	e1a03000 	mov	r3, r0
c1081b04:	e1a04001 	mov	r4, r1
c1081b08:	e50b301c 	str	r3, [fp, #-28]
c1081b0c:	e50b4018 	str	r4, [fp, #-24]
c1081b10:	e24b2034 	sub	r2, fp, #52	; 0x34
c1081b14:	e8920006 	ldm	r2, {r1, r2}
c1081b18:	e24b401c 	sub	r4, fp, #28
c1081b1c:	e8940018 	ldm	r4, {r3, r4}
c1081b20:	e0511003 	subs	r1, r1, r3
c1081b24:	e0c22004 	sbc	r2, r2, r4
c1081b28:	e24b4024 	sub	r4, fp, #36	; 0x24
c1081b2c:	e8940018 	ldm	r4, {r3, r4}
c1081b30:	e0933001 	adds	r3, r3, r1
c1081b34:	e0a44002 	adc	r4, r4, r2
c1081b38:	e50b3014 	str	r3, [fp, #-20]
c1081b3c:	e50b4010 	str	r4, [fp, #-16]
c1081b40:	e24b4014 	sub	r4, fp, #20
c1081b44:	e8940018 	ldm	r4, {r3, r4}
c1081b48:	e1a00003 	mov	r0, r3
c1081b4c:	e1a01004 	mov	r1, r4
c1081b50:	e24bd008 	sub	sp, fp, #8
c1081b54:	e8bd8810 	pop	{r4, fp, pc}

c1081b58 <elf_loadFile>:
c1081b58:	e92d4870 	push	{r4, r5, r6, fp, lr}
c1081b5c:	e28db010 	add	fp, sp, #16
c1081b60:	e24dd02c 	sub	sp, sp, #44	; 0x2c
c1081b64:	e50b0038 	str	r0, [fp, #-56]	; 0x38
c1081b68:	e1a03001 	mov	r3, r1
c1081b6c:	e54b3039 	strb	r3, [fp, #-57]	; 0x39
c1081b70:	e51b0038 	ldr	r0, [fp, #-56]	; 0x38
c1081b74:	ebfffcd3 	bl	c1080ec8 <elf_checkFile>
c1081b78:	e1a03000 	mov	r3, r0
c1081b7c:	e3530000 	cmp	r3, #0
c1081b80:	0a000001 	beq	c1081b8c <elf_loadFile+0x34>
c1081b84:	e3a03000 	mov	r3, #0
c1081b88:	ea00006e 	b	c1081d48 <elf_loadFile+0x1f0>
c1081b8c:	e51b0038 	ldr	r0, [fp, #-56]	; 0x38
c1081b90:	ebfffcdf 	bl	c1080f14 <elf_getNumProgramHeaders>
c1081b94:	e1a03000 	mov	r3, r0
c1081b98:	e50b3030 	str	r3, [fp, #-48]	; 0x30
c1081b9c:	e3a03000 	mov	r3, #0
c1081ba0:	e50b3034 	str	r3, [fp, #-52]	; 0x34
c1081ba4:	ea000060 	b	c1081d2c <elf_loadFile+0x1d4>
c1081ba8:	e55b3039 	ldrb	r3, [fp, #-57]	; 0x39
c1081bac:	e3530000 	cmp	r3, #0
c1081bb0:	0a00000a 	beq	c1081be0 <elf_loadFile+0x88>
c1081bb4:	e51b3034 	ldr	r3, [fp, #-52]	; 0x34
c1081bb8:	e1a03803 	lsl	r3, r3, #16
c1081bbc:	e1a03823 	lsr	r3, r3, #16
c1081bc0:	e51b0038 	ldr	r0, [fp, #-56]	; 0x38
c1081bc4:	e1a01003 	mov	r1, r3
c1081bc8:	ebfffd19 	bl	c1081034 <elf_getProgramHeaderPaddr>
c1081bcc:	e1a03000 	mov	r3, r0
c1081bd0:	e1a04001 	mov	r4, r1
c1081bd4:	e50b302c 	str	r3, [fp, #-44]	; 0x2c
c1081bd8:	e50b4028 	str	r4, [fp, #-40]	; 0x28
c1081bdc:	ea000009 	b	c1081c08 <elf_loadFile+0xb0>
c1081be0:	e51b3034 	ldr	r3, [fp, #-52]	; 0x34
c1081be4:	e1a03803 	lsl	r3, r3, #16
c1081be8:	e1a03823 	lsr	r3, r3, #16
c1081bec:	e51b0038 	ldr	r0, [fp, #-56]	; 0x38
c1081bf0:	e1a01003 	mov	r1, r3
c1081bf4:	ebfffd2b 	bl	c10810a8 <elf_getProgramHeaderVaddr>
c1081bf8:	e1a03000 	mov	r3, r0
c1081bfc:	e1a04001 	mov	r4, r1
c1081c00:	e50b302c 	str	r3, [fp, #-44]	; 0x2c
c1081c04:	e50b4028 	str	r4, [fp, #-40]	; 0x28
c1081c08:	e51b3034 	ldr	r3, [fp, #-52]	; 0x34
c1081c0c:	e1a03803 	lsl	r3, r3, #16
c1081c10:	e1a03823 	lsr	r3, r3, #16
c1081c14:	e51b0038 	ldr	r0, [fp, #-56]	; 0x38
c1081c18:	e1a01003 	mov	r1, r3
c1081c1c:	ebfffd5b 	bl	c1081190 <elf_getProgramHeaderFileSize>
c1081c20:	e1a03000 	mov	r3, r0
c1081c24:	e1a04001 	mov	r4, r1
c1081c28:	e50b3018 	str	r3, [fp, #-24]
c1081c2c:	e51b3038 	ldr	r3, [fp, #-56]	; 0x38
c1081c30:	e1a05003 	mov	r5, r3
c1081c34:	e3a06000 	mov	r6, #0
c1081c38:	e51b3034 	ldr	r3, [fp, #-52]	; 0x34
c1081c3c:	e1a03803 	lsl	r3, r3, #16
c1081c40:	e1a03823 	lsr	r3, r3, #16
c1081c44:	e51b0038 	ldr	r0, [fp, #-56]	; 0x38
c1081c48:	e1a01003 	mov	r1, r3
c1081c4c:	ebfffd6c 	bl	c1081204 <elf_getProgramHeaderOffset>
c1081c50:	e1a03000 	mov	r3, r0
c1081c54:	e1a04001 	mov	r4, r1
c1081c58:	e0933005 	adds	r3, r3, r5
c1081c5c:	e0a44006 	adc	r4, r4, r6
c1081c60:	e50b3024 	str	r3, [fp, #-36]	; 0x24
c1081c64:	e50b4020 	str	r4, [fp, #-32]
c1081c68:	e51b202c 	ldr	r2, [fp, #-44]	; 0x2c
c1081c6c:	e51b102c 	ldr	r1, [fp, #-44]	; 0x2c
c1081c70:	e51b3018 	ldr	r3, [fp, #-24]
c1081c74:	e0813003 	add	r3, r1, r3
c1081c78:	e59f00d4 	ldr	r0, [pc, #212]	; c1081d54 <elf_loadFile+0x1fc>
c1081c7c:	e1a01002 	mov	r1, r2
c1081c80:	e1a02003 	mov	r2, r3
c1081c84:	e51b3018 	ldr	r3, [fp, #-24]
c1081c88:	eb0008b5 	bl	c1083f64 <printf>
c1081c8c:	e51b302c 	ldr	r3, [fp, #-44]	; 0x2c
c1081c90:	e1a02003 	mov	r2, r3
c1081c94:	e51b3024 	ldr	r3, [fp, #-36]	; 0x24
c1081c98:	e1a00002 	mov	r0, r2
c1081c9c:	e1a01003 	mov	r1, r3
c1081ca0:	e51b2018 	ldr	r2, [fp, #-24]
c1081ca4:	eb0007d1 	bl	c1083bf0 <memcpy>
c1081ca8:	e51b3018 	ldr	r3, [fp, #-24]
c1081cac:	e3a04000 	mov	r4, #0
c1081cb0:	e24b202c 	sub	r2, fp, #44	; 0x2c
c1081cb4:	e8920006 	ldm	r2, {r1, r2}
c1081cb8:	e0933001 	adds	r3, r3, r1
c1081cbc:	e0a44002 	adc	r4, r4, r2
c1081cc0:	e50b302c 	str	r3, [fp, #-44]	; 0x2c
c1081cc4:	e50b4028 	str	r4, [fp, #-40]	; 0x28
c1081cc8:	e51b3034 	ldr	r3, [fp, #-52]	; 0x34
c1081ccc:	e1a03803 	lsl	r3, r3, #16
c1081cd0:	e1a03823 	lsr	r3, r3, #16
c1081cd4:	e51b0038 	ldr	r0, [fp, #-56]	; 0x38
c1081cd8:	e1a01003 	mov	r1, r3
c1081cdc:	ebfffd0e 	bl	c108111c <elf_getProgramHeaderMemorySize>
c1081ce0:	e1a03000 	mov	r3, r0
c1081ce4:	e1a04001 	mov	r4, r1
c1081ce8:	e1a02003 	mov	r2, r3
c1081cec:	e51b3018 	ldr	r3, [fp, #-24]
c1081cf0:	e0633002 	rsb	r3, r3, r2
c1081cf4:	e50b301c 	str	r3, [fp, #-28]
c1081cf8:	e51b302c 	ldr	r3, [fp, #-44]	; 0x2c
c1081cfc:	e59f0054 	ldr	r0, [pc, #84]	; c1081d58 <elf_loadFile+0x200>
c1081d00:	e1a01003 	mov	r1, r3
c1081d04:	e51b201c 	ldr	r2, [fp, #-28]
c1081d08:	eb000895 	bl	c1083f64 <printf>
c1081d0c:	e51b302c 	ldr	r3, [fp, #-44]	; 0x2c
c1081d10:	e1a00003 	mov	r0, r3
c1081d14:	e3a01000 	mov	r1, #0
c1081d18:	e51b201c 	ldr	r2, [fp, #-28]
c1081d1c:	eb000803 	bl	c1083d30 <memset>
c1081d20:	e51b3034 	ldr	r3, [fp, #-52]	; 0x34
c1081d24:	e2833001 	add	r3, r3, #1
c1081d28:	e50b3034 	str	r3, [fp, #-52]	; 0x34
c1081d2c:	e51b2034 	ldr	r2, [fp, #-52]	; 0x34
c1081d30:	e51b3030 	ldr	r3, [fp, #-48]	; 0x30
c1081d34:	e1520003 	cmp	r2, r3
c1081d38:	baffff9a 	blt	c1081ba8 <elf_loadFile+0x50>
c1081d3c:	e59f0018 	ldr	r0, [pc, #24]	; c1081d5c <elf_loadFile+0x204>
c1081d40:	eb000887 	bl	c1083f64 <printf>
c1081d44:	e3a03001 	mov	r3, #1
c1081d48:	e1a00003 	mov	r0, r3
c1081d4c:	e24bd010 	sub	sp, fp, #16
c1081d50:	e8bd8870 	pop	{r4, r5, r6, fp, pc}
c1081d54:	c1086224 	.word	0xc1086224
c1081d58:	c1086258 	.word	0xc1086258
c1081d5c:	c1086288 	.word	0xc1086288

c1081d60 <elf32_getSectionTable>:
c1081d60:	e52db004 	push	{fp}		; (str fp, [sp, #-4]!)
c1081d64:	e28db000 	add	fp, sp, #0
c1081d68:	e24dd00c 	sub	sp, sp, #12
c1081d6c:	e50b0008 	str	r0, [fp, #-8]
c1081d70:	e51b3008 	ldr	r3, [fp, #-8]
c1081d74:	e5932020 	ldr	r2, [r3, #32]
c1081d78:	e51b3008 	ldr	r3, [fp, #-8]
c1081d7c:	e0823003 	add	r3, r2, r3
c1081d80:	e1a00003 	mov	r0, r3
c1081d84:	e28bd000 	add	sp, fp, #0
c1081d88:	e8bd0800 	pop	{fp}
c1081d8c:	e12fff1e 	bx	lr

c1081d90 <elf32_getProgramHeaderTable>:
c1081d90:	e52db004 	push	{fp}		; (str fp, [sp, #-4]!)
c1081d94:	e28db000 	add	fp, sp, #0
c1081d98:	e24dd00c 	sub	sp, sp, #12
c1081d9c:	e50b0008 	str	r0, [fp, #-8]
c1081da0:	e51b3008 	ldr	r3, [fp, #-8]
c1081da4:	e593201c 	ldr	r2, [r3, #28]
c1081da8:	e51b3008 	ldr	r3, [fp, #-8]
c1081dac:	e0823003 	add	r3, r2, r3
c1081db0:	e1a00003 	mov	r0, r3
c1081db4:	e28bd000 	add	sp, fp, #0
c1081db8:	e8bd0800 	pop	{fp}
c1081dbc:	e12fff1e 	bx	lr

c1081dc0 <elf32_checkFile>:
c1081dc0:	e52db004 	push	{fp}		; (str fp, [sp, #-4]!)
c1081dc4:	e28db000 	add	fp, sp, #0
c1081dc8:	e24dd00c 	sub	sp, sp, #12
c1081dcc:	e50b0008 	str	r0, [fp, #-8]
c1081dd0:	e51b3008 	ldr	r3, [fp, #-8]
c1081dd4:	e5d33000 	ldrb	r3, [r3]
c1081dd8:	e353007f 	cmp	r3, #127	; 0x7f
c1081ddc:	1a00000b 	bne	c1081e10 <elf32_checkFile+0x50>
c1081de0:	e51b3008 	ldr	r3, [fp, #-8]
c1081de4:	e5d33001 	ldrb	r3, [r3, #1]
c1081de8:	e3530045 	cmp	r3, #69	; 0x45
c1081dec:	1a000007 	bne	c1081e10 <elf32_checkFile+0x50>
c1081df0:	e51b3008 	ldr	r3, [fp, #-8]
c1081df4:	e5d33002 	ldrb	r3, [r3, #2]
c1081df8:	e353004c 	cmp	r3, #76	; 0x4c
c1081dfc:	1a000003 	bne	c1081e10 <elf32_checkFile+0x50>
c1081e00:	e51b3008 	ldr	r3, [fp, #-8]
c1081e04:	e5d33003 	ldrb	r3, [r3, #3]
c1081e08:	e3530046 	cmp	r3, #70	; 0x46
c1081e0c:	0a000001 	beq	c1081e18 <elf32_checkFile+0x58>
c1081e10:	e3e03000 	mvn	r3, #0
c1081e14:	ea000006 	b	c1081e34 <elf32_checkFile+0x74>
c1081e18:	e51b3008 	ldr	r3, [fp, #-8]
c1081e1c:	e5d33004 	ldrb	r3, [r3, #4]
c1081e20:	e3530001 	cmp	r3, #1
c1081e24:	0a000001 	beq	c1081e30 <elf32_checkFile+0x70>
c1081e28:	e3e03001 	mvn	r3, #1
c1081e2c:	ea000000 	b	c1081e34 <elf32_checkFile+0x74>
c1081e30:	e3a03000 	mov	r3, #0
c1081e34:	e1a00003 	mov	r0, r3
c1081e38:	e28bd000 	add	sp, fp, #0
c1081e3c:	e8bd0800 	pop	{fp}
c1081e40:	e12fff1e 	bx	lr

c1081e44 <elf32_getNumSections>:
c1081e44:	e52db004 	push	{fp}		; (str fp, [sp, #-4]!)
c1081e48:	e28db000 	add	fp, sp, #0
c1081e4c:	e24dd00c 	sub	sp, sp, #12
c1081e50:	e50b0008 	str	r0, [fp, #-8]
c1081e54:	e51b3008 	ldr	r3, [fp, #-8]
c1081e58:	e1d333b0 	ldrh	r3, [r3, #48]	; 0x30
c1081e5c:	e1a00003 	mov	r0, r3
c1081e60:	e28bd000 	add	sp, fp, #0
c1081e64:	e8bd0800 	pop	{fp}
c1081e68:	e12fff1e 	bx	lr

c1081e6c <elf32_getStringTable>:
c1081e6c:	e92d4800 	push	{fp, lr}
c1081e70:	e28db004 	add	fp, sp, #4
c1081e74:	e24dd010 	sub	sp, sp, #16
c1081e78:	e50b0010 	str	r0, [fp, #-16]
c1081e7c:	e51b0010 	ldr	r0, [fp, #-16]
c1081e80:	ebffffb6 	bl	c1081d60 <elf32_getSectionTable>
c1081e84:	e1a03000 	mov	r3, r0
c1081e88:	e50b3008 	str	r3, [fp, #-8]
c1081e8c:	e51b1010 	ldr	r1, [fp, #-16]
c1081e90:	e51b3010 	ldr	r3, [fp, #-16]
c1081e94:	e1d333b2 	ldrh	r3, [r3, #50]	; 0x32
c1081e98:	e1a02003 	mov	r2, r3
c1081e9c:	e1a03002 	mov	r3, r2
c1081ea0:	e1a03103 	lsl	r3, r3, #2
c1081ea4:	e0833002 	add	r3, r3, r2
c1081ea8:	e1a03183 	lsl	r3, r3, #3
c1081eac:	e1a02003 	mov	r2, r3
c1081eb0:	e51b3008 	ldr	r3, [fp, #-8]
c1081eb4:	e0823003 	add	r3, r2, r3
c1081eb8:	e5933010 	ldr	r3, [r3, #16]
c1081ebc:	e0813003 	add	r3, r1, r3
c1081ec0:	e1a00003 	mov	r0, r3
c1081ec4:	e24bd004 	sub	sp, fp, #4
c1081ec8:	e8bd8800 	pop	{fp, pc}

c1081ecc <elf32_getProgramSegmentTable>:
c1081ecc:	e52db004 	push	{fp}		; (str fp, [sp, #-4]!)
c1081ed0:	e28db000 	add	fp, sp, #0
c1081ed4:	e24dd014 	sub	sp, sp, #20
c1081ed8:	e50b0010 	str	r0, [fp, #-16]
c1081edc:	e51b3010 	ldr	r3, [fp, #-16]
c1081ee0:	e50b3008 	str	r3, [fp, #-8]
c1081ee4:	e51b3008 	ldr	r3, [fp, #-8]
c1081ee8:	e593201c 	ldr	r2, [r3, #28]
c1081eec:	e51b3010 	ldr	r3, [fp, #-16]
c1081ef0:	e0823003 	add	r3, r2, r3
c1081ef4:	e1a00003 	mov	r0, r3
c1081ef8:	e28bd000 	add	sp, fp, #0
c1081efc:	e8bd0800 	pop	{fp}
c1081f00:	e12fff1e 	bx	lr

c1081f04 <elf32_getNumProgramHeaders>:
c1081f04:	e52db004 	push	{fp}		; (str fp, [sp, #-4]!)
c1081f08:	e28db000 	add	fp, sp, #0
c1081f0c:	e24dd014 	sub	sp, sp, #20
c1081f10:	e50b0010 	str	r0, [fp, #-16]
c1081f14:	e51b3010 	ldr	r3, [fp, #-16]
c1081f18:	e50b3008 	str	r3, [fp, #-8]
c1081f1c:	e51b3008 	ldr	r3, [fp, #-8]
c1081f20:	e1d332bc 	ldrh	r3, [r3, #44]	; 0x2c
c1081f24:	e1a00003 	mov	r0, r3
c1081f28:	e28bd000 	add	sp, fp, #0
c1081f2c:	e8bd0800 	pop	{fp}
c1081f30:	e12fff1e 	bx	lr

c1081f34 <elf32_getSectionName>:
c1081f34:	e92d4800 	push	{fp, lr}
c1081f38:	e28db004 	add	fp, sp, #4
c1081f3c:	e24dd010 	sub	sp, sp, #16
c1081f40:	e50b0010 	str	r0, [fp, #-16]
c1081f44:	e50b1014 	str	r1, [fp, #-20]
c1081f48:	e51b0010 	ldr	r0, [fp, #-16]
c1081f4c:	ebffff83 	bl	c1081d60 <elf32_getSectionTable>
c1081f50:	e1a03000 	mov	r3, r0
c1081f54:	e50b300c 	str	r3, [fp, #-12]
c1081f58:	e51b0010 	ldr	r0, [fp, #-16]
c1081f5c:	eb00007c 	bl	c1082154 <elf32_getSegmentStringTable>
c1081f60:	e1a03000 	mov	r3, r0
c1081f64:	e50b3008 	str	r3, [fp, #-8]
c1081f68:	e51b3008 	ldr	r3, [fp, #-8]
c1081f6c:	e3530000 	cmp	r3, #0
c1081f70:	1a000001 	bne	c1081f7c <elf32_getSectionName+0x48>
c1081f74:	e59f3038 	ldr	r3, [pc, #56]	; c1081fb4 <elf32_getSectionName+0x80>
c1081f78:	ea00000a 	b	c1081fa8 <elf32_getSectionName+0x74>
c1081f7c:	e51b2014 	ldr	r2, [fp, #-20]
c1081f80:	e1a03002 	mov	r3, r2
c1081f84:	e1a03103 	lsl	r3, r3, #2
c1081f88:	e0833002 	add	r3, r3, r2
c1081f8c:	e1a03183 	lsl	r3, r3, #3
c1081f90:	e1a02003 	mov	r2, r3
c1081f94:	e51b300c 	ldr	r3, [fp, #-12]
c1081f98:	e0823003 	add	r3, r2, r3
c1081f9c:	e5932000 	ldr	r2, [r3]
c1081fa0:	e51b3008 	ldr	r3, [fp, #-8]
c1081fa4:	e0823003 	add	r3, r2, r3
c1081fa8:	e1a00003 	mov	r0, r3
c1081fac:	e24bd004 	sub	sp, fp, #4
c1081fb0:	e8bd8800 	pop	{fp, pc}
c1081fb4:	c108628c 	.word	0xc108628c

c1081fb8 <elf32_getSectionSize>:
c1081fb8:	e92d4800 	push	{fp, lr}
c1081fbc:	e28db004 	add	fp, sp, #4
c1081fc0:	e24dd010 	sub	sp, sp, #16
c1081fc4:	e50b0010 	str	r0, [fp, #-16]
c1081fc8:	e50b1014 	str	r1, [fp, #-20]
c1081fcc:	e51b0010 	ldr	r0, [fp, #-16]
c1081fd0:	ebffff62 	bl	c1081d60 <elf32_getSectionTable>
c1081fd4:	e1a03000 	mov	r3, r0
c1081fd8:	e50b3008 	str	r3, [fp, #-8]
c1081fdc:	e51b2014 	ldr	r2, [fp, #-20]
c1081fe0:	e1a03002 	mov	r3, r2
c1081fe4:	e1a03103 	lsl	r3, r3, #2
c1081fe8:	e0833002 	add	r3, r3, r2
c1081fec:	e1a03183 	lsl	r3, r3, #3
c1081ff0:	e1a02003 	mov	r2, r3
c1081ff4:	e51b3008 	ldr	r3, [fp, #-8]
c1081ff8:	e0823003 	add	r3, r2, r3
c1081ffc:	e5933014 	ldr	r3, [r3, #20]
c1082000:	e1a00003 	mov	r0, r3
c1082004:	e24bd004 	sub	sp, fp, #4
c1082008:	e8bd8800 	pop	{fp, pc}

c108200c <elf32_getSectionAddr>:
c108200c:	e92d4800 	push	{fp, lr}
c1082010:	e28db004 	add	fp, sp, #4
c1082014:	e24dd010 	sub	sp, sp, #16
c1082018:	e50b0010 	str	r0, [fp, #-16]
c108201c:	e50b1014 	str	r1, [fp, #-20]
c1082020:	e51b0010 	ldr	r0, [fp, #-16]
c1082024:	ebffff4d 	bl	c1081d60 <elf32_getSectionTable>
c1082028:	e1a03000 	mov	r3, r0
c108202c:	e50b3008 	str	r3, [fp, #-8]
c1082030:	e51b2014 	ldr	r2, [fp, #-20]
c1082034:	e1a03002 	mov	r3, r2
c1082038:	e1a03103 	lsl	r3, r3, #2
c108203c:	e0833002 	add	r3, r3, r2
c1082040:	e1a03183 	lsl	r3, r3, #3
c1082044:	e1a02003 	mov	r2, r3
c1082048:	e51b3008 	ldr	r3, [fp, #-8]
c108204c:	e0823003 	add	r3, r2, r3
c1082050:	e593300c 	ldr	r3, [r3, #12]
c1082054:	e1a00003 	mov	r0, r3
c1082058:	e24bd004 	sub	sp, fp, #4
c108205c:	e8bd8800 	pop	{fp, pc}

c1082060 <elf32_getSection>:
c1082060:	e92d4800 	push	{fp, lr}
c1082064:	e28db004 	add	fp, sp, #4
c1082068:	e24dd010 	sub	sp, sp, #16
c108206c:	e50b0010 	str	r0, [fp, #-16]
c1082070:	e50b1014 	str	r1, [fp, #-20]
c1082074:	e51b0010 	ldr	r0, [fp, #-16]
c1082078:	ebffff38 	bl	c1081d60 <elf32_getSectionTable>
c108207c:	e1a03000 	mov	r3, r0
c1082080:	e50b3008 	str	r3, [fp, #-8]
c1082084:	e51b2014 	ldr	r2, [fp, #-20]
c1082088:	e1a03002 	mov	r3, r2
c108208c:	e1a03103 	lsl	r3, r3, #2
c1082090:	e0833002 	add	r3, r3, r2
c1082094:	e1a03183 	lsl	r3, r3, #3
c1082098:	e1a02003 	mov	r2, r3
c108209c:	e51b3008 	ldr	r3, [fp, #-8]
c10820a0:	e0823003 	add	r3, r2, r3
c10820a4:	e5932010 	ldr	r2, [r3, #16]
c10820a8:	e51b3010 	ldr	r3, [fp, #-16]
c10820ac:	e0823003 	add	r3, r2, r3
c10820b0:	e1a00003 	mov	r0, r3
c10820b4:	e24bd004 	sub	sp, fp, #4
c10820b8:	e8bd8800 	pop	{fp, pc}

c10820bc <elf32_getSectionNamed>:
c10820bc:	e92d4800 	push	{fp, lr}
c10820c0:	e28db004 	add	fp, sp, #4
c10820c4:	e24dd010 	sub	sp, sp, #16
c10820c8:	e50b0010 	str	r0, [fp, #-16]
c10820cc:	e50b1014 	str	r1, [fp, #-20]
c10820d0:	e51b0010 	ldr	r0, [fp, #-16]
c10820d4:	ebffff5a 	bl	c1081e44 <elf32_getNumSections>
c10820d8:	e1a03000 	mov	r3, r0
c10820dc:	e50b300c 	str	r3, [fp, #-12]
c10820e0:	e3a03000 	mov	r3, #0
c10820e4:	e50b3008 	str	r3, [fp, #-8]
c10820e8:	ea000011 	b	c1082134 <elf32_getSectionNamed+0x78>
c10820ec:	e51b0010 	ldr	r0, [fp, #-16]
c10820f0:	e51b1008 	ldr	r1, [fp, #-8]
c10820f4:	ebffff8e 	bl	c1081f34 <elf32_getSectionName>
c10820f8:	e1a03000 	mov	r3, r0
c10820fc:	e51b0014 	ldr	r0, [fp, #-20]
c1082100:	e1a01003 	mov	r1, r3
c1082104:	eb0007ab 	bl	c1083fb8 <strcmp>
c1082108:	e1a03000 	mov	r3, r0
c108210c:	e3530000 	cmp	r3, #0
c1082110:	1a000004 	bne	c1082128 <elf32_getSectionNamed+0x6c>
c1082114:	e51b0010 	ldr	r0, [fp, #-16]
c1082118:	e51b1008 	ldr	r1, [fp, #-8]
c108211c:	ebffffcf 	bl	c1082060 <elf32_getSection>
c1082120:	e1a03000 	mov	r3, r0
c1082124:	ea000007 	b	c1082148 <elf32_getSectionNamed+0x8c>
c1082128:	e51b3008 	ldr	r3, [fp, #-8]
c108212c:	e2833001 	add	r3, r3, #1
c1082130:	e50b3008 	str	r3, [fp, #-8]
c1082134:	e51b2008 	ldr	r2, [fp, #-8]
c1082138:	e51b300c 	ldr	r3, [fp, #-12]
c108213c:	e1520003 	cmp	r2, r3
c1082140:	baffffe9 	blt	c10820ec <elf32_getSectionNamed+0x30>
c1082144:	e3a03000 	mov	r3, #0
c1082148:	e1a00003 	mov	r0, r3
c108214c:	e24bd004 	sub	sp, fp, #4
c1082150:	e8bd8800 	pop	{fp, pc}

c1082154 <elf32_getSegmentStringTable>:
c1082154:	e92d4800 	push	{fp, lr}
c1082158:	e28db004 	add	fp, sp, #4
c108215c:	e24dd010 	sub	sp, sp, #16
c1082160:	e50b0010 	str	r0, [fp, #-16]
c1082164:	e51b3010 	ldr	r3, [fp, #-16]
c1082168:	e50b3008 	str	r3, [fp, #-8]
c108216c:	e51b3008 	ldr	r3, [fp, #-8]
c1082170:	e1d333b2 	ldrh	r3, [r3, #50]	; 0x32
c1082174:	e3530000 	cmp	r3, #0
c1082178:	1a000001 	bne	c1082184 <elf32_getSegmentStringTable+0x30>
c108217c:	e3a03000 	mov	r3, #0
c1082180:	ea000002 	b	c1082190 <elf32_getSegmentStringTable+0x3c>
c1082184:	e51b0010 	ldr	r0, [fp, #-16]
c1082188:	ebffff37 	bl	c1081e6c <elf32_getStringTable>
c108218c:	e1a03000 	mov	r3, r0
c1082190:	e1a00003 	mov	r0, r3
c1082194:	e24bd004 	sub	sp, fp, #4
c1082198:	e8bd8800 	pop	{fp, pc}

c108219c <elf32_getSegmentType>:
c108219c:	e92d4800 	push	{fp, lr}
c10821a0:	e28db004 	add	fp, sp, #4
c10821a4:	e24dd008 	sub	sp, sp, #8
c10821a8:	e50b0008 	str	r0, [fp, #-8]
c10821ac:	e50b100c 	str	r1, [fp, #-12]
c10821b0:	e51b0008 	ldr	r0, [fp, #-8]
c10821b4:	ebffff44 	bl	c1081ecc <elf32_getProgramSegmentTable>
c10821b8:	e1a02000 	mov	r2, r0
c10821bc:	e51b300c 	ldr	r3, [fp, #-12]
c10821c0:	e1a03283 	lsl	r3, r3, #5
c10821c4:	e0823003 	add	r3, r2, r3
c10821c8:	e5933000 	ldr	r3, [r3]
c10821cc:	e1a00003 	mov	r0, r3
c10821d0:	e24bd004 	sub	sp, fp, #4
c10821d4:	e8bd8800 	pop	{fp, pc}

c10821d8 <elf32_getSegmentInfo>:
c10821d8:	e92d4810 	push	{r4, fp, lr}
c10821dc:	e28db008 	add	fp, sp, #8
c10821e0:	e24dd01c 	sub	sp, sp, #28
c10821e4:	e50b0018 	str	r0, [fp, #-24]
c10821e8:	e50b101c 	str	r1, [fp, #-28]
c10821ec:	e50b2020 	str	r2, [fp, #-32]
c10821f0:	e50b3024 	str	r3, [fp, #-36]	; 0x24
c10821f4:	e51b0018 	ldr	r0, [fp, #-24]
c10821f8:	ebffff33 	bl	c1081ecc <elf32_getProgramSegmentTable>
c10821fc:	e1a03000 	mov	r3, r0
c1082200:	e50b3010 	str	r3, [fp, #-16]
c1082204:	e51b301c 	ldr	r3, [fp, #-28]
c1082208:	e1a02283 	lsl	r2, r3, #5
c108220c:	e51b3010 	ldr	r3, [fp, #-16]
c1082210:	e0823003 	add	r3, r2, r3
c1082214:	e593300c 	ldr	r3, [r3, #12]
c1082218:	e3a04000 	mov	r4, #0
c108221c:	e51b2024 	ldr	r2, [fp, #-36]	; 0x24
c1082220:	e8820018 	stm	r2, {r3, r4}
c1082224:	e51b301c 	ldr	r3, [fp, #-28]
c1082228:	e1a02283 	lsl	r2, r3, #5
c108222c:	e51b3010 	ldr	r3, [fp, #-16]
c1082230:	e0823003 	add	r3, r2, r3
c1082234:	e5933008 	ldr	r3, [r3, #8]
c1082238:	e3a04000 	mov	r4, #0
c108223c:	e51b2020 	ldr	r2, [fp, #-32]
c1082240:	e8820018 	stm	r2, {r3, r4}
c1082244:	e51b301c 	ldr	r3, [fp, #-28]
c1082248:	e1a02283 	lsl	r2, r3, #5
c108224c:	e51b3010 	ldr	r3, [fp, #-16]
c1082250:	e0823003 	add	r3, r2, r3
c1082254:	e5933010 	ldr	r3, [r3, #16]
c1082258:	e3a04000 	mov	r4, #0
c108225c:	e59b2004 	ldr	r2, [fp, #4]
c1082260:	e8820018 	stm	r2, {r3, r4}
c1082264:	e51b301c 	ldr	r3, [fp, #-28]
c1082268:	e1a02283 	lsl	r2, r3, #5
c108226c:	e51b3010 	ldr	r3, [fp, #-16]
c1082270:	e0823003 	add	r3, r2, r3
c1082274:	e5933004 	ldr	r3, [r3, #4]
c1082278:	e3a04000 	mov	r4, #0
c108227c:	e59b2008 	ldr	r2, [fp, #8]
c1082280:	e8820018 	stm	r2, {r3, r4}
c1082284:	e51b301c 	ldr	r3, [fp, #-28]
c1082288:	e1a02283 	lsl	r2, r3, #5
c108228c:	e51b3010 	ldr	r3, [fp, #-16]
c1082290:	e0823003 	add	r3, r2, r3
c1082294:	e5933014 	ldr	r3, [r3, #20]
c1082298:	e3a04000 	mov	r4, #0
c108229c:	e59b200c 	ldr	r2, [fp, #12]
c10822a0:	e8820018 	stm	r2, {r3, r4}
c10822a4:	e24bd008 	sub	sp, fp, #8
c10822a8:	e8bd8810 	pop	{r4, fp, pc}

c10822ac <elf32_getEntryPoint>:
c10822ac:	e52db004 	push	{fp}		; (str fp, [sp, #-4]!)
c10822b0:	e28db000 	add	fp, sp, #0
c10822b4:	e24dd00c 	sub	sp, sp, #12
c10822b8:	e50b0008 	str	r0, [fp, #-8]
c10822bc:	e51b3008 	ldr	r3, [fp, #-8]
c10822c0:	e5933018 	ldr	r3, [r3, #24]
c10822c4:	e1a00003 	mov	r0, r3
c10822c8:	e28bd000 	add	sp, fp, #0
c10822cc:	e8bd0800 	pop	{fp}
c10822d0:	e12fff1e 	bx	lr

c10822d4 <elf32_fprintf>:
c10822d4:	e92d48f0 	push	{r4, r5, r6, r7, fp, lr}
c10822d8:	e28db014 	add	fp, sp, #20
c10822dc:	e24dd050 	sub	sp, sp, #80	; 0x50
c10822e0:	e50b0038 	str	r0, [fp, #-56]	; 0x38
c10822e4:	e50b103c 	str	r1, [fp, #-60]	; 0x3c
c10822e8:	e50b2040 	str	r2, [fp, #-64]	; 0x40
c10822ec:	e50b3044 	str	r3, [fp, #-68]	; 0x44
c10822f0:	e51b0038 	ldr	r0, [fp, #-56]	; 0x38
c10822f4:	e59f1368 	ldr	r1, [pc, #872]	; c1082664 <elf32_fprintf+0x390>
c10822f8:	e51b2044 	ldr	r2, [fp, #-68]	; 0x44
c10822fc:	e51b303c 	ldr	r3, [fp, #-60]	; 0x3c
c1082300:	eb000627 	bl	c1083ba4 <fprintf>
c1082304:	e51b003c 	ldr	r0, [fp, #-60]	; 0x3c
c1082308:	ebfffeac 	bl	c1081dc0 <elf32_checkFile>
c108230c:	e1a03000 	mov	r3, r0
c1082310:	e50b301c 	str	r3, [fp, #-28]
c1082314:	e51b301c 	ldr	r3, [fp, #-28]
c1082318:	e3530000 	cmp	r3, #0
c108231c:	0a000018 	beq	c1082384 <elf32_fprintf+0xb0>
c1082320:	e51b303c 	ldr	r3, [fp, #-60]	; 0x3c
c1082324:	e50b3018 	str	r3, [fp, #-24]
c1082328:	e51b0038 	ldr	r0, [fp, #-56]	; 0x38
c108232c:	e59f1334 	ldr	r1, [pc, #820]	; c1082668 <elf32_fprintf+0x394>
c1082330:	e51b201c 	ldr	r2, [fp, #-28]
c1082334:	eb00061a 	bl	c1083ba4 <fprintf>
c1082338:	e51b3018 	ldr	r3, [fp, #-24]
c108233c:	e5d33000 	ldrb	r3, [r3]
c1082340:	e1a02003 	mov	r2, r3
c1082344:	e51b3018 	ldr	r3, [fp, #-24]
c1082348:	e2833001 	add	r3, r3, #1
c108234c:	e5d33000 	ldrb	r3, [r3]
c1082350:	e51b1018 	ldr	r1, [fp, #-24]
c1082354:	e2811002 	add	r1, r1, #2
c1082358:	e5d11000 	ldrb	r1, [r1]
c108235c:	e1a00001 	mov	r0, r1
c1082360:	e51b1018 	ldr	r1, [fp, #-24]
c1082364:	e2811003 	add	r1, r1, #3
c1082368:	e5d11000 	ldrb	r1, [r1]
c108236c:	e58d0000 	str	r0, [sp]
c1082370:	e58d1004 	str	r1, [sp, #4]
c1082374:	e51b0038 	ldr	r0, [fp, #-56]	; 0x38
c1082378:	e59f12ec 	ldr	r1, [pc, #748]	; c108266c <elf32_fprintf+0x398>
c108237c:	eb000608 	bl	c1083ba4 <fprintf>
c1082380:	ea0000b5 	b	c108265c <elf32_fprintf+0x388>
c1082384:	e51b003c 	ldr	r0, [fp, #-60]	; 0x3c
c1082388:	ebfffe80 	bl	c1081d90 <elf32_getProgramHeaderTable>
c108238c:	e1a03000 	mov	r3, r0
c1082390:	e50b3030 	str	r3, [fp, #-48]	; 0x30
c1082394:	e51b003c 	ldr	r0, [fp, #-60]	; 0x3c
c1082398:	ebfffed9 	bl	c1081f04 <elf32_getNumProgramHeaders>
c108239c:	e1a03000 	mov	r3, r0
c10823a0:	e50b302c 	str	r3, [fp, #-44]	; 0x2c
c10823a4:	e51b003c 	ldr	r0, [fp, #-60]	; 0x3c
c10823a8:	ebfffe6c 	bl	c1081d60 <elf32_getSectionTable>
c10823ac:	e1a03000 	mov	r3, r0
c10823b0:	e50b3028 	str	r3, [fp, #-40]	; 0x28
c10823b4:	e51b003c 	ldr	r0, [fp, #-60]	; 0x3c
c10823b8:	ebfffea1 	bl	c1081e44 <elf32_getNumSections>
c10823bc:	e1a03000 	mov	r3, r0
c10823c0:	e50b3024 	str	r3, [fp, #-36]	; 0x24
c10823c4:	e51b2028 	ldr	r2, [fp, #-40]	; 0x28
c10823c8:	e51b103c 	ldr	r1, [fp, #-60]	; 0x3c
c10823cc:	e51b3040 	ldr	r3, [fp, #-64]	; 0x40
c10823d0:	e0813003 	add	r3, r1, r3
c10823d4:	e1520003 	cmp	r2, r3
c10823d8:	9a000003 	bls	c10823ec <elf32_fprintf+0x118>
c10823dc:	e51b0038 	ldr	r0, [fp, #-56]	; 0x38
c10823e0:	e59f1288 	ldr	r1, [pc, #648]	; c1082670 <elf32_fprintf+0x39c>
c10823e4:	eb0005ee 	bl	c1083ba4 <fprintf>
c10823e8:	ea00009b 	b	c108265c <elf32_fprintf+0x388>
c10823ec:	e59b3004 	ldr	r3, [fp, #4]
c10823f0:	e2033001 	and	r3, r3, #1
c10823f4:	e20330ff 	and	r3, r3, #255	; 0xff
c10823f8:	e3530000 	cmp	r3, #0
c10823fc:	0a000067 	beq	c10825a0 <elf32_fprintf+0x2cc>
c1082400:	e51b0038 	ldr	r0, [fp, #-56]	; 0x38
c1082404:	e59f1268 	ldr	r1, [pc, #616]	; c1082674 <elf32_fprintf+0x3a0>
c1082408:	eb0005e5 	bl	c1083ba4 <fprintf>
c108240c:	e51b0038 	ldr	r0, [fp, #-56]	; 0x38
c1082410:	e59f1260 	ldr	r1, [pc, #608]	; c1082678 <elf32_fprintf+0x3a4>
c1082414:	eb0005e2 	bl	c1083ba4 <fprintf>
c1082418:	e3a03000 	mov	r3, #0
c108241c:	e50b3020 	str	r3, [fp, #-32]
c1082420:	ea00005a 	b	c1082590 <elf32_fprintf+0x2bc>
c1082424:	e51b3020 	ldr	r3, [fp, #-32]
c1082428:	e1a02283 	lsl	r2, r3, #5
c108242c:	e51b3030 	ldr	r3, [fp, #-48]	; 0x30
c1082430:	e0823003 	add	r3, r2, r3
c1082434:	e5933000 	ldr	r3, [r3]
c1082438:	e3530001 	cmp	r3, #1
c108243c:	0a000004 	beq	c1082454 <elf32_fprintf+0x180>
c1082440:	e51b0038 	ldr	r0, [fp, #-56]	; 0x38
c1082444:	e59f1230 	ldr	r1, [pc, #560]	; c108267c <elf32_fprintf+0x3a8>
c1082448:	e51b2020 	ldr	r2, [fp, #-32]
c108244c:	eb0005d4 	bl	c1083ba4 <fprintf>
c1082450:	ea00004b 	b	c1082584 <elf32_fprintf+0x2b0>
c1082454:	e51b3020 	ldr	r3, [fp, #-32]
c1082458:	e1a02283 	lsl	r2, r3, #5
c108245c:	e51b3030 	ldr	r3, [fp, #-48]	; 0x30
c1082460:	e0823003 	add	r3, r2, r3
c1082464:	e593e004 	ldr	lr, [r3, #4]
c1082468:	e51b3020 	ldr	r3, [fp, #-32]
c108246c:	e1a02283 	lsl	r2, r3, #5
c1082470:	e51b3030 	ldr	r3, [fp, #-48]	; 0x30
c1082474:	e0823003 	add	r3, r2, r3
c1082478:	e593c008 	ldr	ip, [r3, #8]
c108247c:	e51b3020 	ldr	r3, [fp, #-32]
c1082480:	e1a02283 	lsl	r2, r3, #5
c1082484:	e51b3030 	ldr	r3, [fp, #-48]	; 0x30
c1082488:	e0823003 	add	r3, r2, r3
c108248c:	e593600c 	ldr	r6, [r3, #12]
c1082490:	e51b3020 	ldr	r3, [fp, #-32]
c1082494:	e1a02283 	lsl	r2, r3, #5
c1082498:	e51b3030 	ldr	r3, [fp, #-48]	; 0x30
c108249c:	e0823003 	add	r3, r2, r3
c10824a0:	e5935010 	ldr	r5, [r3, #16]
c10824a4:	e51b3020 	ldr	r3, [fp, #-32]
c10824a8:	e1a02283 	lsl	r2, r3, #5
c10824ac:	e51b3030 	ldr	r3, [fp, #-48]	; 0x30
c10824b0:	e0823003 	add	r3, r2, r3
c10824b4:	e5934014 	ldr	r4, [r3, #20]
c10824b8:	e51b3020 	ldr	r3, [fp, #-32]
c10824bc:	e1a02283 	lsl	r2, r3, #5
c10824c0:	e51b3030 	ldr	r3, [fp, #-48]	; 0x30
c10824c4:	e0823003 	add	r3, r2, r3
c10824c8:	e5933018 	ldr	r3, [r3, #24]
c10824cc:	e2033004 	and	r3, r3, #4
c10824d0:	e3530000 	cmp	r3, #0
c10824d4:	0a000001 	beq	c10824e0 <elf32_fprintf+0x20c>
c10824d8:	e3a01052 	mov	r1, #82	; 0x52
c10824dc:	ea000000 	b	c10824e4 <elf32_fprintf+0x210>
c10824e0:	e3a01020 	mov	r1, #32
c10824e4:	e51b3020 	ldr	r3, [fp, #-32]
c10824e8:	e1a02283 	lsl	r2, r3, #5
c10824ec:	e51b3030 	ldr	r3, [fp, #-48]	; 0x30
c10824f0:	e0823003 	add	r3, r2, r3
c10824f4:	e5933018 	ldr	r3, [r3, #24]
c10824f8:	e2033002 	and	r3, r3, #2
c10824fc:	e3530000 	cmp	r3, #0
c1082500:	0a000001 	beq	c108250c <elf32_fprintf+0x238>
c1082504:	e3a02057 	mov	r2, #87	; 0x57
c1082508:	ea000000 	b	c1082510 <elf32_fprintf+0x23c>
c108250c:	e3a02020 	mov	r2, #32
c1082510:	e51b3020 	ldr	r3, [fp, #-32]
c1082514:	e1a00283 	lsl	r0, r3, #5
c1082518:	e51b3030 	ldr	r3, [fp, #-48]	; 0x30
c108251c:	e0803003 	add	r3, r0, r3
c1082520:	e5933018 	ldr	r3, [r3, #24]
c1082524:	e2033001 	and	r3, r3, #1
c1082528:	e20330ff 	and	r3, r3, #255	; 0xff
c108252c:	e3530000 	cmp	r3, #0
c1082530:	0a000001 	beq	c108253c <elf32_fprintf+0x268>
c1082534:	e3a03045 	mov	r3, #69	; 0x45
c1082538:	ea000000 	b	c1082540 <elf32_fprintf+0x26c>
c108253c:	e3a03020 	mov	r3, #32
c1082540:	e51b0020 	ldr	r0, [fp, #-32]
c1082544:	e1a07280 	lsl	r7, r0, #5
c1082548:	e51b0030 	ldr	r0, [fp, #-48]	; 0x30
c108254c:	e0870000 	add	r0, r7, r0
c1082550:	e590001c 	ldr	r0, [r0, #28]
c1082554:	e58d6000 	str	r6, [sp]
c1082558:	e58d5004 	str	r5, [sp, #4]
c108255c:	e58d4008 	str	r4, [sp, #8]
c1082560:	e58d100c 	str	r1, [sp, #12]
c1082564:	e58d2010 	str	r2, [sp, #16]
c1082568:	e58d3014 	str	r3, [sp, #20]
c108256c:	e58d0018 	str	r0, [sp, #24]
c1082570:	e51b0038 	ldr	r0, [fp, #-56]	; 0x38
c1082574:	e59f1104 	ldr	r1, [pc, #260]	; c1082680 <elf32_fprintf+0x3ac>
c1082578:	e1a0200e 	mov	r2, lr
c108257c:	e1a0300c 	mov	r3, ip
c1082580:	eb000587 	bl	c1083ba4 <fprintf>
c1082584:	e51b3020 	ldr	r3, [fp, #-32]
c1082588:	e2833001 	add	r3, r3, #1
c108258c:	e50b3020 	str	r3, [fp, #-32]
c1082590:	e51b2020 	ldr	r2, [fp, #-32]
c1082594:	e51b302c 	ldr	r3, [fp, #-44]	; 0x2c
c1082598:	e1520003 	cmp	r2, r3
c108259c:	3affffa0 	bcc	c1082424 <elf32_fprintf+0x150>
c10825a0:	e59b3004 	ldr	r3, [fp, #4]
c10825a4:	e2033002 	and	r3, r3, #2
c10825a8:	e3530000 	cmp	r3, #0
c10825ac:	0a00002a 	beq	c108265c <elf32_fprintf+0x388>
c10825b0:	e59f00cc 	ldr	r0, [pc, #204]	; c1082684 <elf32_fprintf+0x3b0>
c10825b4:	eb00066a 	bl	c1083f64 <printf>
c10825b8:	e59f00c8 	ldr	r0, [pc, #200]	; c1082688 <elf32_fprintf+0x3b4>
c10825bc:	eb000668 	bl	c1083f64 <printf>
c10825c0:	e3a03000 	mov	r3, #0
c10825c4:	e50b3020 	str	r3, [fp, #-32]
c10825c8:	ea00001f 	b	c108264c <elf32_fprintf+0x378>
c10825cc:	e51b003c 	ldr	r0, [fp, #-60]	; 0x3c
c10825d0:	e51b1020 	ldr	r1, [fp, #-32]
c10825d4:	ebfffe56 	bl	c1081f34 <elf32_getSectionName>
c10825d8:	e1a0c000 	mov	ip, r0
c10825dc:	e51b2020 	ldr	r2, [fp, #-32]
c10825e0:	e1a03002 	mov	r3, r2
c10825e4:	e1a03103 	lsl	r3, r3, #2
c10825e8:	e0833002 	add	r3, r3, r2
c10825ec:	e1a03183 	lsl	r3, r3, #3
c10825f0:	e1a02003 	mov	r2, r3
c10825f4:	e51b3028 	ldr	r3, [fp, #-40]	; 0x28
c10825f8:	e0823003 	add	r3, r2, r3
c10825fc:	e593100c 	ldr	r1, [r3, #12]
c1082600:	e51b2020 	ldr	r2, [fp, #-32]
c1082604:	e1a03002 	mov	r3, r2
c1082608:	e1a03103 	lsl	r3, r3, #2
c108260c:	e0833002 	add	r3, r3, r2
c1082610:	e1a03183 	lsl	r3, r3, #3
c1082614:	e1a02003 	mov	r2, r3
c1082618:	e51b3028 	ldr	r3, [fp, #-40]	; 0x28
c108261c:	e0823003 	add	r3, r2, r3
c1082620:	e5933010 	ldr	r3, [r3, #16]
c1082624:	e58d1000 	str	r1, [sp]
c1082628:	e58d3004 	str	r3, [sp, #4]
c108262c:	e51b0038 	ldr	r0, [fp, #-56]	; 0x38
c1082630:	e59f1054 	ldr	r1, [pc, #84]	; c108268c <elf32_fprintf+0x3b8>
c1082634:	e51b2020 	ldr	r2, [fp, #-32]
c1082638:	e1a0300c 	mov	r3, ip
c108263c:	eb000558 	bl	c1083ba4 <fprintf>
c1082640:	e51b3020 	ldr	r3, [fp, #-32]
c1082644:	e2833001 	add	r3, r3, #1
c1082648:	e50b3020 	str	r3, [fp, #-32]
c108264c:	e51b2020 	ldr	r2, [fp, #-32]
c1082650:	e51b3024 	ldr	r3, [fp, #-36]	; 0x24
c1082654:	e1520003 	cmp	r2, r3
c1082658:	3affffdb 	bcc	c10825cc <elf32_fprintf+0x2f8>
c108265c:	e24bd014 	sub	sp, fp, #20
c1082660:	e8bd88f0 	pop	{r4, r5, r6, r7, fp, pc}
c1082664:	c1086298 	.word	0xc1086298
c1082668:	c10862d4 	.word	0xc10862d4
c108266c:	c10862ec 	.word	0xc10862ec
c1082670:	c1086318 	.word	0xc1086318
c1082674:	c1086330 	.word	0xc1086330
c1082678:	c1086344 	.word	0xc1086344
c108267c:	c1086390 	.word	0xc1086390
c1082680:	c10863b8 	.word	0xc10863b8
c1082684:	c10863fc 	.word	0xc10863fc
c1082688:	c1086410 	.word	0xc1086410
c108268c:	c1086448 	.word	0xc1086448

c1082690 <elf64_getSectionTable>:
c1082690:	e92d0810 	push	{r4, fp}
c1082694:	e28db004 	add	fp, sp, #4
c1082698:	e24dd008 	sub	sp, sp, #8
c108269c:	e50b0008 	str	r0, [fp, #-8]
c10826a0:	e51b3008 	ldr	r3, [fp, #-8]
c10826a4:	e2834028 	add	r4, r3, #40	; 0x28
c10826a8:	e8940018 	ldm	r4, {r3, r4}
c10826ac:	e1a02003 	mov	r2, r3
c10826b0:	e51b3008 	ldr	r3, [fp, #-8]
c10826b4:	e0823003 	add	r3, r2, r3
c10826b8:	e1a00003 	mov	r0, r3
c10826bc:	e24bd004 	sub	sp, fp, #4
c10826c0:	e8bd0810 	pop	{r4, fp}
c10826c4:	e12fff1e 	bx	lr

c10826c8 <elf64_checkFile>:
c10826c8:	e52db004 	push	{fp}		; (str fp, [sp, #-4]!)
c10826cc:	e28db000 	add	fp, sp, #0
c10826d0:	e24dd014 	sub	sp, sp, #20
c10826d4:	e50b0010 	str	r0, [fp, #-16]
c10826d8:	e51b3010 	ldr	r3, [fp, #-16]
c10826dc:	e50b3008 	str	r3, [fp, #-8]
c10826e0:	e51b3008 	ldr	r3, [fp, #-8]
c10826e4:	e5d33000 	ldrb	r3, [r3]
c10826e8:	e353007f 	cmp	r3, #127	; 0x7f
c10826ec:	1a00000b 	bne	c1082720 <elf64_checkFile+0x58>
c10826f0:	e51b3008 	ldr	r3, [fp, #-8]
c10826f4:	e5d33001 	ldrb	r3, [r3, #1]
c10826f8:	e3530045 	cmp	r3, #69	; 0x45
c10826fc:	1a000007 	bne	c1082720 <elf64_checkFile+0x58>
c1082700:	e51b3008 	ldr	r3, [fp, #-8]
c1082704:	e5d33002 	ldrb	r3, [r3, #2]
c1082708:	e353004c 	cmp	r3, #76	; 0x4c
c108270c:	1a000003 	bne	c1082720 <elf64_checkFile+0x58>
c1082710:	e51b3008 	ldr	r3, [fp, #-8]
c1082714:	e5d33003 	ldrb	r3, [r3, #3]
c1082718:	e3530046 	cmp	r3, #70	; 0x46
c108271c:	0a000001 	beq	c1082728 <elf64_checkFile+0x60>
c1082720:	e3e03000 	mvn	r3, #0
c1082724:	ea000006 	b	c1082744 <elf64_checkFile+0x7c>
c1082728:	e51b3008 	ldr	r3, [fp, #-8]
c108272c:	e5d33004 	ldrb	r3, [r3, #4]
c1082730:	e3530002 	cmp	r3, #2
c1082734:	0a000001 	beq	c1082740 <elf64_checkFile+0x78>
c1082738:	e3e03001 	mvn	r3, #1
c108273c:	ea000000 	b	c1082744 <elf64_checkFile+0x7c>
c1082740:	e3a03000 	mov	r3, #0
c1082744:	e1a00003 	mov	r0, r3
c1082748:	e28bd000 	add	sp, fp, #0
c108274c:	e8bd0800 	pop	{fp}
c1082750:	e12fff1e 	bx	lr

c1082754 <elf64_getProgramSegmentTable>:
c1082754:	e92d0810 	push	{r4, fp}
c1082758:	e28db004 	add	fp, sp, #4
c108275c:	e24dd010 	sub	sp, sp, #16
c1082760:	e50b0010 	str	r0, [fp, #-16]
c1082764:	e51b3010 	ldr	r3, [fp, #-16]
c1082768:	e50b3008 	str	r3, [fp, #-8]
c108276c:	e51b3008 	ldr	r3, [fp, #-8]
c1082770:	e2834020 	add	r4, r3, #32
c1082774:	e8940018 	ldm	r4, {r3, r4}
c1082778:	e1a02003 	mov	r2, r3
c108277c:	e51b3010 	ldr	r3, [fp, #-16]
c1082780:	e0823003 	add	r3, r2, r3
c1082784:	e1a00003 	mov	r0, r3
c1082788:	e24bd004 	sub	sp, fp, #4
c108278c:	e8bd0810 	pop	{r4, fp}
c1082790:	e12fff1e 	bx	lr

c1082794 <elf64_getNumSections>:
c1082794:	e52db004 	push	{fp}		; (str fp, [sp, #-4]!)
c1082798:	e28db000 	add	fp, sp, #0
c108279c:	e24dd014 	sub	sp, sp, #20
c10827a0:	e50b0010 	str	r0, [fp, #-16]
c10827a4:	e51b3010 	ldr	r3, [fp, #-16]
c10827a8:	e50b3008 	str	r3, [fp, #-8]
c10827ac:	e51b3008 	ldr	r3, [fp, #-8]
c10827b0:	e1d333bc 	ldrh	r3, [r3, #60]	; 0x3c
c10827b4:	e1a00003 	mov	r0, r3
c10827b8:	e28bd000 	add	sp, fp, #0
c10827bc:	e8bd0800 	pop	{fp}
c10827c0:	e12fff1e 	bx	lr

c10827c4 <elf64_getStringTable>:
c10827c4:	e92d4810 	push	{r4, fp, lr}
c10827c8:	e28db008 	add	fp, sp, #8
c10827cc:	e24dd014 	sub	sp, sp, #20
c10827d0:	e50b0018 	str	r0, [fp, #-24]
c10827d4:	e50b101c 	str	r1, [fp, #-28]
c10827d8:	e51b3018 	ldr	r3, [fp, #-24]
c10827dc:	e1a00003 	mov	r0, r3
c10827e0:	ebffffaa 	bl	c1082690 <elf64_getSectionTable>
c10827e4:	e1a03000 	mov	r3, r0
c10827e8:	e50b3010 	str	r3, [fp, #-16]
c10827ec:	e51b2018 	ldr	r2, [fp, #-24]
c10827f0:	e51b301c 	ldr	r3, [fp, #-28]
c10827f4:	e1a01303 	lsl	r1, r3, #6
c10827f8:	e51b3010 	ldr	r3, [fp, #-16]
c10827fc:	e0813003 	add	r3, r1, r3
c1082800:	e2834018 	add	r4, r3, #24
c1082804:	e8940018 	ldm	r4, {r3, r4}
c1082808:	e0823003 	add	r3, r2, r3
c108280c:	e1a00003 	mov	r0, r3
c1082810:	e24bd008 	sub	sp, fp, #8
c1082814:	e8bd8810 	pop	{r4, fp, pc}

c1082818 <elf64_getSegmentStringTable>:
c1082818:	e92d4800 	push	{fp, lr}
c108281c:	e28db004 	add	fp, sp, #4
c1082820:	e24dd010 	sub	sp, sp, #16
c1082824:	e50b0010 	str	r0, [fp, #-16]
c1082828:	e51b3010 	ldr	r3, [fp, #-16]
c108282c:	e50b3008 	str	r3, [fp, #-8]
c1082830:	e51b3008 	ldr	r3, [fp, #-8]
c1082834:	e1d333be 	ldrh	r3, [r3, #62]	; 0x3e
c1082838:	e3530000 	cmp	r3, #0
c108283c:	1a000001 	bne	c1082848 <elf64_getSegmentStringTable+0x30>
c1082840:	e3a03000 	mov	r3, #0
c1082844:	ea000005 	b	c1082860 <elf64_getSegmentStringTable+0x48>
c1082848:	e51b3008 	ldr	r3, [fp, #-8]
c108284c:	e1d333be 	ldrh	r3, [r3, #62]	; 0x3e
c1082850:	e51b0010 	ldr	r0, [fp, #-16]
c1082854:	e1a01003 	mov	r1, r3
c1082858:	ebffffd9 	bl	c10827c4 <elf64_getStringTable>
c108285c:	e1a03000 	mov	r3, r0
c1082860:	e1a00003 	mov	r0, r3
c1082864:	e24bd004 	sub	sp, fp, #4
c1082868:	e8bd8800 	pop	{fp, pc}

c108286c <elf64_getSectionName>:
c108286c:	e92d4800 	push	{fp, lr}
c1082870:	e28db004 	add	fp, sp, #4
c1082874:	e24dd010 	sub	sp, sp, #16
c1082878:	e50b0010 	str	r0, [fp, #-16]
c108287c:	e50b1014 	str	r1, [fp, #-20]
c1082880:	e51b3010 	ldr	r3, [fp, #-16]
c1082884:	e1a00003 	mov	r0, r3
c1082888:	ebffff80 	bl	c1082690 <elf64_getSectionTable>
c108288c:	e1a03000 	mov	r3, r0
c1082890:	e50b300c 	str	r3, [fp, #-12]
c1082894:	e51b0010 	ldr	r0, [fp, #-16]
c1082898:	ebffffde 	bl	c1082818 <elf64_getSegmentStringTable>
c108289c:	e1a03000 	mov	r3, r0
c10828a0:	e50b3008 	str	r3, [fp, #-8]
c10828a4:	e51b3008 	ldr	r3, [fp, #-8]
c10828a8:	e3530000 	cmp	r3, #0
c10828ac:	1a000001 	bne	c10828b8 <elf64_getSectionName+0x4c>
c10828b0:	e59f3028 	ldr	r3, [pc, #40]	; c10828e0 <elf64_getSectionName+0x74>
c10828b4:	ea000006 	b	c10828d4 <elf64_getSectionName+0x68>
c10828b8:	e51b3014 	ldr	r3, [fp, #-20]
c10828bc:	e1a02303 	lsl	r2, r3, #6
c10828c0:	e51b300c 	ldr	r3, [fp, #-12]
c10828c4:	e0823003 	add	r3, r2, r3
c10828c8:	e5932000 	ldr	r2, [r3]
c10828cc:	e51b3008 	ldr	r3, [fp, #-8]
c10828d0:	e0823003 	add	r3, r2, r3
c10828d4:	e1a00003 	mov	r0, r3
c10828d8:	e24bd004 	sub	sp, fp, #4
c10828dc:	e8bd8800 	pop	{fp, pc}
c10828e0:	c1086458 	.word	0xc1086458

c10828e4 <elf64_getSectionSize>:
c10828e4:	e92d4810 	push	{r4, fp, lr}
c10828e8:	e28db008 	add	fp, sp, #8
c10828ec:	e24dd014 	sub	sp, sp, #20
c10828f0:	e50b0018 	str	r0, [fp, #-24]
c10828f4:	e50b101c 	str	r1, [fp, #-28]
c10828f8:	e51b3018 	ldr	r3, [fp, #-24]
c10828fc:	e1a00003 	mov	r0, r3
c1082900:	ebffff62 	bl	c1082690 <elf64_getSectionTable>
c1082904:	e1a03000 	mov	r3, r0
c1082908:	e50b3010 	str	r3, [fp, #-16]
c108290c:	e51b301c 	ldr	r3, [fp, #-28]
c1082910:	e1a02303 	lsl	r2, r3, #6
c1082914:	e51b3010 	ldr	r3, [fp, #-16]
c1082918:	e0823003 	add	r3, r2, r3
c108291c:	e2834020 	add	r4, r3, #32
c1082920:	e8940018 	ldm	r4, {r3, r4}
c1082924:	e1a00003 	mov	r0, r3
c1082928:	e1a01004 	mov	r1, r4
c108292c:	e24bd008 	sub	sp, fp, #8
c1082930:	e8bd8810 	pop	{r4, fp, pc}

c1082934 <elf64_getSectionAddr>:
c1082934:	e92d4810 	push	{r4, fp, lr}
c1082938:	e28db008 	add	fp, sp, #8
c108293c:	e24dd014 	sub	sp, sp, #20
c1082940:	e50b0018 	str	r0, [fp, #-24]
c1082944:	e50b101c 	str	r1, [fp, #-28]
c1082948:	e51b0018 	ldr	r0, [fp, #-24]
c108294c:	ebffff4f 	bl	c1082690 <elf64_getSectionTable>
c1082950:	e1a03000 	mov	r3, r0
c1082954:	e50b3010 	str	r3, [fp, #-16]
c1082958:	e51b301c 	ldr	r3, [fp, #-28]
c108295c:	e1a02303 	lsl	r2, r3, #6
c1082960:	e51b3010 	ldr	r3, [fp, #-16]
c1082964:	e0823003 	add	r3, r2, r3
c1082968:	e2834010 	add	r4, r3, #16
c108296c:	e8940018 	ldm	r4, {r3, r4}
c1082970:	e1a00003 	mov	r0, r3
c1082974:	e1a01004 	mov	r1, r4
c1082978:	e24bd008 	sub	sp, fp, #8
c108297c:	e8bd8810 	pop	{r4, fp, pc}

c1082980 <elf64_getSection>:
c1082980:	e92d4810 	push	{r4, fp, lr}
c1082984:	e28db008 	add	fp, sp, #8
c1082988:	e24dd014 	sub	sp, sp, #20
c108298c:	e50b0018 	str	r0, [fp, #-24]
c1082990:	e50b101c 	str	r1, [fp, #-28]
c1082994:	e51b3018 	ldr	r3, [fp, #-24]
c1082998:	e1a00003 	mov	r0, r3
c108299c:	ebffff3b 	bl	c1082690 <elf64_getSectionTable>
c10829a0:	e1a03000 	mov	r3, r0
c10829a4:	e50b3010 	str	r3, [fp, #-16]
c10829a8:	e51b301c 	ldr	r3, [fp, #-28]
c10829ac:	e1a02303 	lsl	r2, r3, #6
c10829b0:	e51b3010 	ldr	r3, [fp, #-16]
c10829b4:	e0823003 	add	r3, r2, r3
c10829b8:	e2834018 	add	r4, r3, #24
c10829bc:	e8940018 	ldm	r4, {r3, r4}
c10829c0:	e1a02003 	mov	r2, r3
c10829c4:	e51b3018 	ldr	r3, [fp, #-24]
c10829c8:	e0823003 	add	r3, r2, r3
c10829cc:	e1a00003 	mov	r0, r3
c10829d0:	e24bd008 	sub	sp, fp, #8
c10829d4:	e8bd8810 	pop	{r4, fp, pc}

c10829d8 <elf64_getSectionNamed>:
c10829d8:	e92d4800 	push	{fp, lr}
c10829dc:	e28db004 	add	fp, sp, #4
c10829e0:	e24dd010 	sub	sp, sp, #16
c10829e4:	e50b0010 	str	r0, [fp, #-16]
c10829e8:	e50b1014 	str	r1, [fp, #-20]
c10829ec:	e51b0010 	ldr	r0, [fp, #-16]
c10829f0:	ebffff67 	bl	c1082794 <elf64_getNumSections>
c10829f4:	e1a03000 	mov	r3, r0
c10829f8:	e50b300c 	str	r3, [fp, #-12]
c10829fc:	e3a03000 	mov	r3, #0
c1082a00:	e50b3008 	str	r3, [fp, #-8]
c1082a04:	ea000011 	b	c1082a50 <elf64_getSectionNamed+0x78>
c1082a08:	e51b0010 	ldr	r0, [fp, #-16]
c1082a0c:	e51b1008 	ldr	r1, [fp, #-8]
c1082a10:	ebffff95 	bl	c108286c <elf64_getSectionName>
c1082a14:	e1a03000 	mov	r3, r0
c1082a18:	e51b0014 	ldr	r0, [fp, #-20]
c1082a1c:	e1a01003 	mov	r1, r3
c1082a20:	eb000564 	bl	c1083fb8 <strcmp>
c1082a24:	e1a03000 	mov	r3, r0
c1082a28:	e3530000 	cmp	r3, #0
c1082a2c:	1a000004 	bne	c1082a44 <elf64_getSectionNamed+0x6c>
c1082a30:	e51b0010 	ldr	r0, [fp, #-16]
c1082a34:	e51b1008 	ldr	r1, [fp, #-8]
c1082a38:	ebffffd0 	bl	c1082980 <elf64_getSection>
c1082a3c:	e1a03000 	mov	r3, r0
c1082a40:	ea000007 	b	c1082a64 <elf64_getSectionNamed+0x8c>
c1082a44:	e51b3008 	ldr	r3, [fp, #-8]
c1082a48:	e2833001 	add	r3, r3, #1
c1082a4c:	e50b3008 	str	r3, [fp, #-8]
c1082a50:	e51b2008 	ldr	r2, [fp, #-8]
c1082a54:	e51b300c 	ldr	r3, [fp, #-12]
c1082a58:	e1520003 	cmp	r2, r3
c1082a5c:	baffffe9 	blt	c1082a08 <elf64_getSectionNamed+0x30>
c1082a60:	e3a03000 	mov	r3, #0
c1082a64:	e1a00003 	mov	r0, r3
c1082a68:	e24bd004 	sub	sp, fp, #4
c1082a6c:	e8bd8800 	pop	{fp, pc}

c1082a70 <elf64_getNumProgramHeaders>:
c1082a70:	e52db004 	push	{fp}		; (str fp, [sp, #-4]!)
c1082a74:	e28db000 	add	fp, sp, #0
c1082a78:	e24dd00c 	sub	sp, sp, #12
c1082a7c:	e50b0008 	str	r0, [fp, #-8]
c1082a80:	e51b3008 	ldr	r3, [fp, #-8]
c1082a84:	e1d333b8 	ldrh	r3, [r3, #56]	; 0x38
c1082a88:	e1a00003 	mov	r0, r3
c1082a8c:	e28bd000 	add	sp, fp, #0
c1082a90:	e8bd0800 	pop	{fp}
c1082a94:	e12fff1e 	bx	lr

c1082a98 <elf64_getSegmentType>:
c1082a98:	e92d4800 	push	{fp, lr}
c1082a9c:	e28db004 	add	fp, sp, #4
c1082aa0:	e24dd008 	sub	sp, sp, #8
c1082aa4:	e50b0008 	str	r0, [fp, #-8]
c1082aa8:	e50b100c 	str	r1, [fp, #-12]
c1082aac:	e51b0008 	ldr	r0, [fp, #-8]
c1082ab0:	ebffff27 	bl	c1082754 <elf64_getProgramSegmentTable>
c1082ab4:	e1a01000 	mov	r1, r0
c1082ab8:	e51b200c 	ldr	r2, [fp, #-12]
c1082abc:	e1a03002 	mov	r3, r2
c1082ac0:	e1a03183 	lsl	r3, r3, #3
c1082ac4:	e0623003 	rsb	r3, r2, r3
c1082ac8:	e1a03183 	lsl	r3, r3, #3
c1082acc:	e0813003 	add	r3, r1, r3
c1082ad0:	e5933000 	ldr	r3, [r3]
c1082ad4:	e1a00003 	mov	r0, r3
c1082ad8:	e24bd004 	sub	sp, fp, #4
c1082adc:	e8bd8800 	pop	{fp, pc}

c1082ae0 <elf64_getSegmentInfo>:
c1082ae0:	e92d4810 	push	{r4, fp, lr}
c1082ae4:	e28db008 	add	fp, sp, #8
c1082ae8:	e24dd01c 	sub	sp, sp, #28
c1082aec:	e50b0018 	str	r0, [fp, #-24]
c1082af0:	e50b101c 	str	r1, [fp, #-28]
c1082af4:	e50b2020 	str	r2, [fp, #-32]
c1082af8:	e50b3024 	str	r3, [fp, #-36]	; 0x24
c1082afc:	e51b0018 	ldr	r0, [fp, #-24]
c1082b00:	ebffff13 	bl	c1082754 <elf64_getProgramSegmentTable>
c1082b04:	e1a03000 	mov	r3, r0
c1082b08:	e50b3010 	str	r3, [fp, #-16]
c1082b0c:	e51b201c 	ldr	r2, [fp, #-28]
c1082b10:	e1a03002 	mov	r3, r2
c1082b14:	e1a03183 	lsl	r3, r3, #3
c1082b18:	e0623003 	rsb	r3, r2, r3
c1082b1c:	e1a03183 	lsl	r3, r3, #3
c1082b20:	e1a02003 	mov	r2, r3
c1082b24:	e51b3010 	ldr	r3, [fp, #-16]
c1082b28:	e0823003 	add	r3, r2, r3
c1082b2c:	e2834010 	add	r4, r3, #16
c1082b30:	e8940018 	ldm	r4, {r3, r4}
c1082b34:	e51b2020 	ldr	r2, [fp, #-32]
c1082b38:	e8820018 	stm	r2, {r3, r4}
c1082b3c:	e51b201c 	ldr	r2, [fp, #-28]
c1082b40:	e1a03002 	mov	r3, r2
c1082b44:	e1a03183 	lsl	r3, r3, #3
c1082b48:	e0623003 	rsb	r3, r2, r3
c1082b4c:	e1a03183 	lsl	r3, r3, #3
c1082b50:	e1a02003 	mov	r2, r3
c1082b54:	e51b3010 	ldr	r3, [fp, #-16]
c1082b58:	e0823003 	add	r3, r2, r3
c1082b5c:	e2834018 	add	r4, r3, #24
c1082b60:	e8940018 	ldm	r4, {r3, r4}
c1082b64:	e51b2024 	ldr	r2, [fp, #-36]	; 0x24
c1082b68:	e8820018 	stm	r2, {r3, r4}
c1082b6c:	e51b201c 	ldr	r2, [fp, #-28]
c1082b70:	e1a03002 	mov	r3, r2
c1082b74:	e1a03183 	lsl	r3, r3, #3
c1082b78:	e0623003 	rsb	r3, r2, r3
c1082b7c:	e1a03183 	lsl	r3, r3, #3
c1082b80:	e1a02003 	mov	r2, r3
c1082b84:	e51b3010 	ldr	r3, [fp, #-16]
c1082b88:	e0823003 	add	r3, r2, r3
c1082b8c:	e2834020 	add	r4, r3, #32
c1082b90:	e8940018 	ldm	r4, {r3, r4}
c1082b94:	e59b2004 	ldr	r2, [fp, #4]
c1082b98:	e8820018 	stm	r2, {r3, r4}
c1082b9c:	e51b201c 	ldr	r2, [fp, #-28]
c1082ba0:	e1a03002 	mov	r3, r2
c1082ba4:	e1a03183 	lsl	r3, r3, #3
c1082ba8:	e0623003 	rsb	r3, r2, r3
c1082bac:	e1a03183 	lsl	r3, r3, #3
c1082bb0:	e1a02003 	mov	r2, r3
c1082bb4:	e51b3010 	ldr	r3, [fp, #-16]
c1082bb8:	e0823003 	add	r3, r2, r3
c1082bbc:	e2834008 	add	r4, r3, #8
c1082bc0:	e8940018 	ldm	r4, {r3, r4}
c1082bc4:	e59b2008 	ldr	r2, [fp, #8]
c1082bc8:	e8820018 	stm	r2, {r3, r4}
c1082bcc:	e51b201c 	ldr	r2, [fp, #-28]
c1082bd0:	e1a03002 	mov	r3, r2
c1082bd4:	e1a03183 	lsl	r3, r3, #3
c1082bd8:	e0623003 	rsb	r3, r2, r3
c1082bdc:	e1a03183 	lsl	r3, r3, #3
c1082be0:	e1a02003 	mov	r2, r3
c1082be4:	e51b3010 	ldr	r3, [fp, #-16]
c1082be8:	e0823003 	add	r3, r2, r3
c1082bec:	e2834028 	add	r4, r3, #40	; 0x28
c1082bf0:	e8940018 	ldm	r4, {r3, r4}
c1082bf4:	e59b200c 	ldr	r2, [fp, #12]
c1082bf8:	e8820018 	stm	r2, {r3, r4}
c1082bfc:	e24bd008 	sub	sp, fp, #8
c1082c00:	e8bd8810 	pop	{r4, fp, pc}

c1082c04 <elf64_getEntryPoint>:
c1082c04:	e92d0810 	push	{r4, fp}
c1082c08:	e28db004 	add	fp, sp, #4
c1082c0c:	e24dd008 	sub	sp, sp, #8
c1082c10:	e50b0008 	str	r0, [fp, #-8]
c1082c14:	e51b3008 	ldr	r3, [fp, #-8]
c1082c18:	e2834018 	add	r4, r3, #24
c1082c1c:	e8940018 	ldm	r4, {r3, r4}
c1082c20:	e1a00003 	mov	r0, r3
c1082c24:	e1a01004 	mov	r1, r4
c1082c28:	e24bd004 	sub	sp, fp, #4
c1082c2c:	e8bd0810 	pop	{r4, fp}
c1082c30:	e12fff1e 	bx	lr

c1082c34 <pl011_uart_enable>:
c1082c34:	e52db004 	push	{fp}		; (str fp, [sp, #-4]!)
c1082c38:	e28db000 	add	fp, sp, #0
c1082c3c:	e24dd014 	sub	sp, sp, #20
c1082c40:	e50b0010 	str	r0, [fp, #-16]
c1082c44:	e3a03000 	mov	r3, #0
c1082c48:	e50b3008 	str	r3, [fp, #-8]
c1082c4c:	e51b3010 	ldr	r3, [fp, #-16]
c1082c50:	e2833030 	add	r3, r3, #48	; 0x30
c1082c54:	e5933000 	ldr	r3, [r3]
c1082c58:	e50b3008 	str	r3, [fp, #-8]
c1082c5c:	e51b3008 	ldr	r3, [fp, #-8]
c1082c60:	e3833001 	orr	r3, r3, #1
c1082c64:	e50b3008 	str	r3, [fp, #-8]
c1082c68:	e51b3010 	ldr	r3, [fp, #-16]
c1082c6c:	e2833030 	add	r3, r3, #48	; 0x30
c1082c70:	e51b2008 	ldr	r2, [fp, #-8]
c1082c74:	e5832000 	str	r2, [r3]
c1082c78:	e28bd000 	add	sp, fp, #0
c1082c7c:	e8bd0800 	pop	{fp}
c1082c80:	e12fff1e 	bx	lr

c1082c84 <pl011_tx_enable>:
c1082c84:	e52db004 	push	{fp}		; (str fp, [sp, #-4]!)
c1082c88:	e28db000 	add	fp, sp, #0
c1082c8c:	e24dd014 	sub	sp, sp, #20
c1082c90:	e50b0010 	str	r0, [fp, #-16]
c1082c94:	e3a03000 	mov	r3, #0
c1082c98:	e50b3008 	str	r3, [fp, #-8]
c1082c9c:	e51b3010 	ldr	r3, [fp, #-16]
c1082ca0:	e2833030 	add	r3, r3, #48	; 0x30
c1082ca4:	e5933000 	ldr	r3, [r3]
c1082ca8:	e50b3008 	str	r3, [fp, #-8]
c1082cac:	e51b3008 	ldr	r3, [fp, #-8]
c1082cb0:	e3833c01 	orr	r3, r3, #256	; 0x100
c1082cb4:	e50b3008 	str	r3, [fp, #-8]
c1082cb8:	e51b3010 	ldr	r3, [fp, #-16]
c1082cbc:	e2833030 	add	r3, r3, #48	; 0x30
c1082cc0:	e51b2008 	ldr	r2, [fp, #-8]
c1082cc4:	e5832000 	str	r2, [r3]
c1082cc8:	e28bd000 	add	sp, fp, #0
c1082ccc:	e8bd0800 	pop	{fp}
c1082cd0:	e12fff1e 	bx	lr

c1082cd4 <pl011_rx_enable>:
c1082cd4:	e52db004 	push	{fp}		; (str fp, [sp, #-4]!)
c1082cd8:	e28db000 	add	fp, sp, #0
c1082cdc:	e24dd014 	sub	sp, sp, #20
c1082ce0:	e50b0010 	str	r0, [fp, #-16]
c1082ce4:	e3a03000 	mov	r3, #0
c1082ce8:	e50b3008 	str	r3, [fp, #-8]
c1082cec:	e51b3010 	ldr	r3, [fp, #-16]
c1082cf0:	e2833030 	add	r3, r3, #48	; 0x30
c1082cf4:	e5933000 	ldr	r3, [r3]
c1082cf8:	e50b3008 	str	r3, [fp, #-8]
c1082cfc:	e51b3008 	ldr	r3, [fp, #-8]
c1082d00:	e3833c02 	orr	r3, r3, #512	; 0x200
c1082d04:	e50b3008 	str	r3, [fp, #-8]
c1082d08:	e51b3010 	ldr	r3, [fp, #-16]
c1082d0c:	e2833030 	add	r3, r3, #48	; 0x30
c1082d10:	e51b2008 	ldr	r2, [fp, #-8]
c1082d14:	e5832000 	str	r2, [r3]
c1082d18:	e28bd000 	add	sp, fp, #0
c1082d1c:	e8bd0800 	pop	{fp}
c1082d20:	e12fff1e 	bx	lr

c1082d24 <pl011_set_stopbits>:
c1082d24:	e52db004 	push	{fp}		; (str fp, [sp, #-4]!)
c1082d28:	e28db000 	add	fp, sp, #0
c1082d2c:	e24dd014 	sub	sp, sp, #20
c1082d30:	e50b0010 	str	r0, [fp, #-16]
c1082d34:	e50b1014 	str	r1, [fp, #-20]
c1082d38:	e3a03000 	mov	r3, #0
c1082d3c:	e50b3008 	str	r3, [fp, #-8]
c1082d40:	e51b3010 	ldr	r3, [fp, #-16]
c1082d44:	e283302c 	add	r3, r3, #44	; 0x2c
c1082d48:	e5933000 	ldr	r3, [r3]
c1082d4c:	e50b3008 	str	r3, [fp, #-8]
c1082d50:	e51b3014 	ldr	r3, [fp, #-20]
c1082d54:	e3530002 	cmp	r3, #2
c1082d58:	1a000003 	bne	c1082d6c <pl011_set_stopbits+0x48>
c1082d5c:	e51b3008 	ldr	r3, [fp, #-8]
c1082d60:	e3833008 	orr	r3, r3, #8
c1082d64:	e50b3008 	str	r3, [fp, #-8]
c1082d68:	ea000002 	b	c1082d78 <pl011_set_stopbits+0x54>
c1082d6c:	e51b3008 	ldr	r3, [fp, #-8]
c1082d70:	e3c33008 	bic	r3, r3, #8
c1082d74:	e50b3008 	str	r3, [fp, #-8]
c1082d78:	e51b3010 	ldr	r3, [fp, #-16]
c1082d7c:	e283302c 	add	r3, r3, #44	; 0x2c
c1082d80:	e51b2008 	ldr	r2, [fp, #-8]
c1082d84:	e5832000 	str	r2, [r3]
c1082d88:	e28bd000 	add	sp, fp, #0
c1082d8c:	e8bd0800 	pop	{fp}
c1082d90:	e12fff1e 	bx	lr

c1082d94 <pl011_parity_disable>:
c1082d94:	e52db004 	push	{fp}		; (str fp, [sp, #-4]!)
c1082d98:	e28db000 	add	fp, sp, #0
c1082d9c:	e24dd014 	sub	sp, sp, #20
c1082da0:	e50b0010 	str	r0, [fp, #-16]
c1082da4:	e3a03000 	mov	r3, #0
c1082da8:	e50b3008 	str	r3, [fp, #-8]
c1082dac:	e51b3010 	ldr	r3, [fp, #-16]
c1082db0:	e283302c 	add	r3, r3, #44	; 0x2c
c1082db4:	e5933000 	ldr	r3, [r3]
c1082db8:	e50b3008 	str	r3, [fp, #-8]
c1082dbc:	e51b3008 	ldr	r3, [fp, #-8]
c1082dc0:	e3c33002 	bic	r3, r3, #2
c1082dc4:	e50b3008 	str	r3, [fp, #-8]
c1082dc8:	e51b3010 	ldr	r3, [fp, #-16]
c1082dcc:	e283302c 	add	r3, r3, #44	; 0x2c
c1082dd0:	e51b2008 	ldr	r2, [fp, #-8]
c1082dd4:	e5832000 	str	r2, [r3]
c1082dd8:	e28bd000 	add	sp, fp, #0
c1082ddc:	e8bd0800 	pop	{fp}
c1082de0:	e12fff1e 	bx	lr

c1082de4 <pl011_disable_fifos>:
c1082de4:	e52db004 	push	{fp}		; (str fp, [sp, #-4]!)
c1082de8:	e28db000 	add	fp, sp, #0
c1082dec:	e24dd014 	sub	sp, sp, #20
c1082df0:	e50b0010 	str	r0, [fp, #-16]
c1082df4:	e3a03000 	mov	r3, #0
c1082df8:	e50b3008 	str	r3, [fp, #-8]
c1082dfc:	e51b3010 	ldr	r3, [fp, #-16]
c1082e00:	e283302c 	add	r3, r3, #44	; 0x2c
c1082e04:	e5933000 	ldr	r3, [r3]
c1082e08:	e50b3008 	str	r3, [fp, #-8]
c1082e0c:	e51b3008 	ldr	r3, [fp, #-8]
c1082e10:	e3c33010 	bic	r3, r3, #16
c1082e14:	e50b3008 	str	r3, [fp, #-8]
c1082e18:	e51b3010 	ldr	r3, [fp, #-16]
c1082e1c:	e283302c 	add	r3, r3, #44	; 0x2c
c1082e20:	e51b2008 	ldr	r2, [fp, #-8]
c1082e24:	e5832000 	str	r2, [r3]
c1082e28:	e28bd000 	add	sp, fp, #0
c1082e2c:	e8bd0800 	pop	{fp}
c1082e30:	e12fff1e 	bx	lr

c1082e34 <pl011_set_word_width>:
c1082e34:	e52db004 	push	{fp}		; (str fp, [sp, #-4]!)
c1082e38:	e28db000 	add	fp, sp, #0
c1082e3c:	e24dd014 	sub	sp, sp, #20
c1082e40:	e50b0010 	str	r0, [fp, #-16]
c1082e44:	e50b1014 	str	r1, [fp, #-20]
c1082e48:	e3a03000 	mov	r3, #0
c1082e4c:	e50b3008 	str	r3, [fp, #-8]
c1082e50:	e51b3014 	ldr	r3, [fp, #-20]
c1082e54:	e3530004 	cmp	r3, #4
c1082e58:	da000002 	ble	c1082e68 <pl011_set_word_width+0x34>
c1082e5c:	e51b3014 	ldr	r3, [fp, #-20]
c1082e60:	e3530008 	cmp	r3, #8
c1082e64:	da000001 	ble	c1082e70 <pl011_set_word_width+0x3c>
c1082e68:	e3a03008 	mov	r3, #8
c1082e6c:	e50b3014 	str	r3, [fp, #-20]
c1082e70:	e51b3010 	ldr	r3, [fp, #-16]
c1082e74:	e283302c 	add	r3, r3, #44	; 0x2c
c1082e78:	e5933000 	ldr	r3, [r3]
c1082e7c:	e50b3008 	str	r3, [fp, #-8]
c1082e80:	e51b3008 	ldr	r3, [fp, #-8]
c1082e84:	e3c33060 	bic	r3, r3, #96	; 0x60
c1082e88:	e50b3008 	str	r3, [fp, #-8]
c1082e8c:	e51b3010 	ldr	r3, [fp, #-16]
c1082e90:	e283302c 	add	r3, r3, #44	; 0x2c
c1082e94:	e51b2008 	ldr	r2, [fp, #-8]
c1082e98:	e5832000 	str	r2, [r3]
c1082e9c:	e51b3010 	ldr	r3, [fp, #-16]
c1082ea0:	e283302c 	add	r3, r3, #44	; 0x2c
c1082ea4:	e5933000 	ldr	r3, [r3]
c1082ea8:	e50b3008 	str	r3, [fp, #-8]
c1082eac:	e51b3014 	ldr	r3, [fp, #-20]
c1082eb0:	e2433005 	sub	r3, r3, #5
c1082eb4:	e1a03283 	lsl	r3, r3, #5
c1082eb8:	e51b2008 	ldr	r2, [fp, #-8]
c1082ebc:	e1823003 	orr	r3, r2, r3
c1082ec0:	e50b3008 	str	r3, [fp, #-8]
c1082ec4:	e51b3010 	ldr	r3, [fp, #-16]
c1082ec8:	e283302c 	add	r3, r3, #44	; 0x2c
c1082ecc:	e51b2008 	ldr	r2, [fp, #-8]
c1082ed0:	e5832000 	str	r2, [r3]
c1082ed4:	e28bd000 	add	sp, fp, #0
c1082ed8:	e8bd0800 	pop	{fp}
c1082edc:	e12fff1e 	bx	lr

c1082ee0 <uart_tx_char>:
c1082ee0:	e52db004 	push	{fp}		; (str fp, [sp, #-4]!)
c1082ee4:	e28db000 	add	fp, sp, #0
c1082ee8:	e24dd014 	sub	sp, sp, #20
c1082eec:	e50b0010 	str	r0, [fp, #-16]
c1082ef0:	e1a03001 	mov	r3, r1
c1082ef4:	e54b3011 	strb	r3, [fp, #-17]
c1082ef8:	e3a03000 	mov	r3, #0
c1082efc:	e50b3008 	str	r3, [fp, #-8]
c1082f00:	e51b3010 	ldr	r3, [fp, #-16]
c1082f04:	e2833018 	add	r3, r3, #24
c1082f08:	e5933000 	ldr	r3, [r3]
c1082f0c:	e50b3008 	str	r3, [fp, #-8]
c1082f10:	e51b3008 	ldr	r3, [fp, #-8]
c1082f14:	e2033020 	and	r3, r3, #32
c1082f18:	e3530000 	cmp	r3, #0
c1082f1c:	1afffff7 	bne	c1082f00 <uart_tx_char+0x20>
c1082f20:	e51b3010 	ldr	r3, [fp, #-16]
c1082f24:	e55b2011 	ldrb	r2, [fp, #-17]
c1082f28:	e5832000 	str	r2, [r3]
c1082f2c:	e28bd000 	add	sp, fp, #0
c1082f30:	e8bd0800 	pop	{fp}
c1082f34:	e12fff1e 	bx	lr

c1082f38 <uart_rx_char>:
c1082f38:	e52db004 	push	{fp}		; (str fp, [sp, #-4]!)
c1082f3c:	e28db000 	add	fp, sp, #0
c1082f40:	e24dd014 	sub	sp, sp, #20
c1082f44:	e50b0010 	str	r0, [fp, #-16]
c1082f48:	e3a03000 	mov	r3, #0
c1082f4c:	e50b3008 	str	r3, [fp, #-8]
c1082f50:	e51b3010 	ldr	r3, [fp, #-16]
c1082f54:	e2833018 	add	r3, r3, #24
c1082f58:	e5933000 	ldr	r3, [r3]
c1082f5c:	e50b3008 	str	r3, [fp, #-8]
c1082f60:	e51b3008 	ldr	r3, [fp, #-8]
c1082f64:	e2033010 	and	r3, r3, #16
c1082f68:	e3530000 	cmp	r3, #0
c1082f6c:	1afffff7 	bne	c1082f50 <uart_rx_char+0x18>
c1082f70:	e51b3010 	ldr	r3, [fp, #-16]
c1082f74:	e5933000 	ldr	r3, [r3]
c1082f78:	e20330ff 	and	r3, r3, #255	; 0xff
c1082f7c:	e1a00003 	mov	r0, r3
c1082f80:	e28bd000 	add	sp, fp, #0
c1082f84:	e8bd0800 	pop	{fp}
c1082f88:	e12fff1e 	bx	lr

c1082f8c <pl011_set_baudrate>:
c1082f8c:	e52db004 	push	{fp}		; (str fp, [sp, #-4]!)
c1082f90:	e28db000 	add	fp, sp, #0
c1082f94:	e24dd024 	sub	sp, sp, #36	; 0x24
c1082f98:	e50b0018 	str	r0, [fp, #-24]
c1082f9c:	e50b101c 	str	r1, [fp, #-28]
c1082fa0:	e50b2020 	str	r2, [fp, #-32]
c1082fa4:	e59f30a8 	ldr	r3, [pc, #168]	; c1083054 <pl011_set_baudrate+0xc8>
c1082fa8:	e50b3014 	str	r3, [fp, #-20]
c1082fac:	e3a03000 	mov	r3, #0
c1082fb0:	e50b3010 	str	r3, [fp, #-16]
c1082fb4:	e3a03000 	mov	r3, #0
c1082fb8:	e50b300c 	str	r3, [fp, #-12]
c1082fbc:	e3a03000 	mov	r3, #0
c1082fc0:	e50b3008 	str	r3, [fp, #-8]
c1082fc4:	e51b3020 	ldr	r3, [fp, #-32]
c1082fc8:	e3530000 	cmp	r3, #0
c1082fcc:	1a000001 	bne	c1082fd8 <pl011_set_baudrate+0x4c>
c1082fd0:	e51b3014 	ldr	r3, [fp, #-20]
c1082fd4:	e50b3020 	str	r3, [fp, #-32]
c1082fd8:	e51b201c 	ldr	r2, [fp, #-28]
c1082fdc:	e59f3074 	ldr	r3, [pc, #116]	; c1083058 <pl011_set_baudrate+0xcc>
c1082fe0:	e1520003 	cmp	r2, r3
c1082fe4:	8a000003 	bhi	c1082ff8 <pl011_set_baudrate+0x6c>
c1082fe8:	e51b201c 	ldr	r2, [fp, #-28]
c1082fec:	e59f3068 	ldr	r3, [pc, #104]	; c108305c <pl011_set_baudrate+0xd0>
c1082ff0:	e1520003 	cmp	r2, r3
c1082ff4:	8a000001 	bhi	c1083000 <pl011_set_baudrate+0x74>
c1082ff8:	e3a03c96 	mov	r3, #38400	; 0x9600
c1082ffc:	e50b301c 	str	r3, [fp, #-28]
c1083000:	e3a03027 	mov	r3, #39	; 0x27
c1083004:	e50b300c 	str	r3, [fp, #-12]
c1083008:	e51b3018 	ldr	r3, [fp, #-24]
c108300c:	e2833024 	add	r3, r3, #36	; 0x24
c1083010:	e51b200c 	ldr	r2, [fp, #-12]
c1083014:	e5832000 	str	r2, [r3]
c1083018:	e51b3018 	ldr	r3, [fp, #-24]
c108301c:	e2833028 	add	r3, r3, #40	; 0x28
c1083020:	e51b2008 	ldr	r2, [fp, #-8]
c1083024:	e5832000 	str	r2, [r3]
c1083028:	e51b3018 	ldr	r3, [fp, #-24]
c108302c:	e283302c 	add	r3, r3, #44	; 0x2c
c1083030:	e5933000 	ldr	r3, [r3]
c1083034:	e50b3010 	str	r3, [fp, #-16]
c1083038:	e51b3018 	ldr	r3, [fp, #-24]
c108303c:	e283302c 	add	r3, r3, #44	; 0x2c
c1083040:	e51b2010 	ldr	r2, [fp, #-16]
c1083044:	e5832000 	str	r2, [r3]
c1083048:	e28bd000 	add	sp, fp, #0
c108304c:	e8bd0800 	pop	{fp}
c1083050:	e12fff1e 	bx	lr
c1083054:	016e3600 	.word	0x016e3600
c1083058:	0001c200 	.word	0x0001c200
c108305c:	000004af 	.word	0x000004af

c1083060 <uart_init>:
c1083060:	e92d4800 	push	{fp, lr}
c1083064:	e28db004 	add	fp, sp, #4
c1083068:	e24dd008 	sub	sp, sp, #8
c108306c:	e50b0008 	str	r0, [fp, #-8]
c1083070:	e51b0008 	ldr	r0, [fp, #-8]
c1083074:	e3a01008 	mov	r1, #8
c1083078:	ebffff6d 	bl	c1082e34 <pl011_set_word_width>
c108307c:	e51b0008 	ldr	r0, [fp, #-8]
c1083080:	ebffff57 	bl	c1082de4 <pl011_disable_fifos>
c1083084:	e51b0008 	ldr	r0, [fp, #-8]
c1083088:	e3a01c96 	mov	r1, #38400	; 0x9600
c108308c:	e59f2034 	ldr	r2, [pc, #52]	; c10830c8 <uart_init+0x68>
c1083090:	ebffffbd 	bl	c1082f8c <pl011_set_baudrate>
c1083094:	e51b0008 	ldr	r0, [fp, #-8]
c1083098:	e3a01001 	mov	r1, #1
c108309c:	ebffff20 	bl	c1082d24 <pl011_set_stopbits>
c10830a0:	e51b0008 	ldr	r0, [fp, #-8]
c10830a4:	ebffff3a 	bl	c1082d94 <pl011_parity_disable>
c10830a8:	e51b0008 	ldr	r0, [fp, #-8]
c10830ac:	ebfffef4 	bl	c1082c84 <pl011_tx_enable>
c10830b0:	e51b0008 	ldr	r0, [fp, #-8]
c10830b4:	ebffff06 	bl	c1082cd4 <pl011_rx_enable>
c10830b8:	e51b0008 	ldr	r0, [fp, #-8]
c10830bc:	ebfffedc 	bl	c1082c34 <pl011_uart_enable>
c10830c0:	e24bd004 	sub	sp, fp, #4
c10830c4:	e8bd8800 	pop	{fp, pc}
c10830c8:	016e3600 	.word	0x016e3600

c10830cc <platform_init>:
c10830cc:	e92d4800 	push	{fp, lr}
c10830d0:	e28db004 	add	fp, sp, #4
c10830d4:	eb000041 	bl	c10831e0 <test_my_uart>
c10830d8:	e59f300c 	ldr	r3, [pc, #12]	; c10830ec <platform_init+0x20>
c10830dc:	e5933000 	ldr	r3, [r3]
c10830e0:	e1a00003 	mov	r0, r3
c10830e4:	ebffffdd 	bl	c1083060 <uart_init>
c10830e8:	e8bd8800 	pop	{fp, pc}
c10830ec:	c110f828 	.word	0xc110f828

c10830f0 <UARTStdioInitExpClk>:
c10830f0:	e92d4800 	push	{fp, lr}
c10830f4:	e28db004 	add	fp, sp, #4
c10830f8:	e24dd010 	sub	sp, sp, #16
c10830fc:	e50b0008 	str	r0, [fp, #-8]
c1083100:	e50b100c 	str	r1, [fp, #-12]
c1083104:	e59f0038 	ldr	r0, [pc, #56]	; c1083144 <UARTStdioInitExpClk+0x54>
c1083108:	eb000102 	bl	c1083518 <UARTEnable>
c108310c:	e3a03000 	mov	r3, #0
c1083110:	e58d3000 	str	r3, [sp]
c1083114:	e59f0028 	ldr	r0, [pc, #40]	; c1083144 <UARTStdioInitExpClk+0x54>
c1083118:	e59f1028 	ldr	r1, [pc, #40]	; c1083148 <UARTStdioInitExpClk+0x58>
c108311c:	e51b2008 	ldr	r2, [fp, #-8]
c1083120:	e3a03003 	mov	r3, #3
c1083124:	eb000038 	bl	c108320c <UARTConfigSetExpClk>
c1083128:	e59f0014 	ldr	r0, [pc, #20]	; c1083144 <UARTStdioInitExpClk+0x54>
c108312c:	eb000115 	bl	c1083588 <UARTFIFOEnable>
c1083130:	e59f000c 	ldr	r0, [pc, #12]	; c1083144 <UARTStdioInitExpClk+0x54>
c1083134:	e51b100c 	ldr	r1, [fp, #-12]
c1083138:	eb0000a7 	bl	c10833dc <UARTFIFOLevelSet>
c108313c:	e24bd004 	sub	sp, fp, #4
c1083140:	e8bd8800 	pop	{fp, pc}
c1083144:	01d0d000 	.word	0x01d0d000
c1083148:	08f0d180 	.word	0x08f0d180

c108314c <UARTConsoleInit>:
c108314c:	e92d4800 	push	{fp, lr}
c1083150:	e28db004 	add	fp, sp, #4
c1083154:	e59f0028 	ldr	r0, [pc, #40]	; c1083184 <UARTConsoleInit+0x38>
c1083158:	e3a0100d 	mov	r1, #13
c108315c:	e3a02000 	mov	r2, #0
c1083160:	e3a03003 	mov	r3, #3
c1083164:	ebfff4c5 	bl	c1080480 <PSCModuleControl>
c1083168:	e3a00002 	mov	r0, #2
c108316c:	e3a01000 	mov	r1, #0
c1083170:	eb000238 	bl	c1083a58 <UARTPinMuxSetup>
c1083174:	e59f000c 	ldr	r0, [pc, #12]	; c1083188 <UARTConsoleInit+0x3c>
c1083178:	e3a01000 	mov	r1, #0
c108317c:	ebffffdb 	bl	c10830f0 <UARTStdioInitExpClk>
c1083180:	e8bd8800 	pop	{fp, pc}
c1083184:	01e27000 	.word	0x01e27000
c1083188:	0001c200 	.word	0x0001c200

c108318c <UARTConsolePutc>:
c108318c:	e92d4800 	push	{fp, lr}
c1083190:	e28db004 	add	fp, sp, #4
c1083194:	e24dd008 	sub	sp, sp, #8
c1083198:	e1a03000 	mov	r3, r0
c108319c:	e54b3005 	strb	r3, [fp, #-5]
c10831a0:	e55b3005 	ldrb	r3, [fp, #-5]
c10831a4:	e59f000c 	ldr	r0, [pc, #12]	; c10831b8 <UARTConsolePutc+0x2c>
c10831a8:	e1a01003 	mov	r1, r3
c10831ac:	eb00017f 	bl	c10837b0 <UARTCharPut>
c10831b0:	e24bd004 	sub	sp, fp, #4
c10831b4:	e8bd8800 	pop	{fp, pc}
c10831b8:	01d0d000 	.word	0x01d0d000

c10831bc <UARTConsoleGetc>:
c10831bc:	e92d4800 	push	{fp, lr}
c10831c0:	e28db004 	add	fp, sp, #4
c10831c4:	e59f0010 	ldr	r0, [pc, #16]	; c10831dc <UARTConsoleGetc+0x20>
c10831c8:	eb000164 	bl	c1083760 <UARTCharGet>
c10831cc:	e1a03000 	mov	r3, r0
c10831d0:	e20330ff 	and	r3, r3, #255	; 0xff
c10831d4:	e1a00003 	mov	r0, r3
c10831d8:	e8bd8800 	pop	{fp, pc}
c10831dc:	01d0d000 	.word	0x01d0d000

c10831e0 <test_my_uart>:
c10831e0:	e92d4800 	push	{fp, lr}
c10831e4:	e28db004 	add	fp, sp, #4
c10831e8:	ebffffd7 	bl	c108314c <UARTConsoleInit>
c10831ec:	e59f0014 	ldr	r0, [pc, #20]	; c1083208 <test_my_uart+0x28>
c10831f0:	e3a01041 	mov	r1, #65	; 0x41
c10831f4:	eb00016d 	bl	c10837b0 <UARTCharPut>
c10831f8:	e59f0008 	ldr	r0, [pc, #8]	; c1083208 <test_my_uart+0x28>
c10831fc:	e3a01041 	mov	r1, #65	; 0x41
c1083200:	eb00016a 	bl	c10837b0 <UARTCharPut>
c1083204:	e8bd8800 	pop	{fp, pc}
c1083208:	01d0d000 	.word	0x01d0d000

c108320c <UARTConfigSetExpClk>:
c108320c:	e92d4800 	push	{fp, lr}
c1083210:	e28db004 	add	fp, sp, #4
c1083214:	e24dd018 	sub	sp, sp, #24
c1083218:	e50b0010 	str	r0, [fp, #-16]
c108321c:	e50b1014 	str	r1, [fp, #-20]
c1083220:	e50b2018 	str	r2, [fp, #-24]
c1083224:	e50b301c 	str	r3, [fp, #-28]
c1083228:	e3a03000 	mov	r3, #0
c108322c:	e50b3008 	str	r3, [fp, #-8]
c1083230:	e59b3004 	ldr	r3, [fp, #4]
c1083234:	e3530001 	cmp	r3, #1
c1083238:	1a00000f 	bne	c108327c <UARTConfigSetExpClk+0x70>
c108323c:	e51b2018 	ldr	r2, [fp, #-24]
c1083240:	e1a03002 	mov	r3, r2
c1083244:	e1a03083 	lsl	r3, r3, #1
c1083248:	e0833002 	add	r3, r3, r2
c108324c:	e1a03103 	lsl	r3, r3, #2
c1083250:	e0833002 	add	r3, r3, r2
c1083254:	e51b0014 	ldr	r0, [fp, #-20]
c1083258:	e1a01003 	mov	r1, r3
c108325c:	eb00089a 	bl	c10854cc <__aeabi_uidiv>
c1083260:	e1a03000 	mov	r3, r0
c1083264:	e50b3008 	str	r3, [fp, #-8]
c1083268:	e51b3010 	ldr	r3, [fp, #-16]
c108326c:	e2833034 	add	r3, r3, #52	; 0x34
c1083270:	e3a02001 	mov	r2, #1
c1083274:	e5832000 	str	r2, [r3]
c1083278:	ea00000d 	b	c10832b4 <UARTConfigSetExpClk+0xa8>
c108327c:	e51b3018 	ldr	r3, [fp, #-24]
c1083280:	e1a03203 	lsl	r3, r3, #4
c1083284:	e51b0014 	ldr	r0, [fp, #-20]
c1083288:	e1a01003 	mov	r1, r3
c108328c:	eb00088e 	bl	c10854cc <__aeabi_uidiv>
c1083290:	e1a03000 	mov	r3, r0
c1083294:	e50b3008 	str	r3, [fp, #-8]
c1083298:	e51b3010 	ldr	r3, [fp, #-16]
c108329c:	e2833034 	add	r3, r3, #52	; 0x34
c10832a0:	e51b2010 	ldr	r2, [fp, #-16]
c10832a4:	e2822034 	add	r2, r2, #52	; 0x34
c10832a8:	e5922000 	ldr	r2, [r2]
c10832ac:	e3c22001 	bic	r2, r2, #1
c10832b0:	e5832000 	str	r2, [r3]
c10832b4:	e51b3010 	ldr	r3, [fp, #-16]
c10832b8:	e2833020 	add	r3, r3, #32
c10832bc:	e51b2008 	ldr	r2, [fp, #-8]
c10832c0:	e20220ff 	and	r2, r2, #255	; 0xff
c10832c4:	e5832000 	str	r2, [r3]
c10832c8:	e51b3010 	ldr	r3, [fp, #-16]
c10832cc:	e2833024 	add	r3, r3, #36	; 0x24
c10832d0:	e51b2008 	ldr	r2, [fp, #-8]
c10832d4:	e2022cff 	and	r2, r2, #65280	; 0xff00
c10832d8:	e1a02422 	lsr	r2, r2, #8
c10832dc:	e5832000 	str	r2, [r3]
c10832e0:	e51b3010 	ldr	r3, [fp, #-16]
c10832e4:	e283300c 	add	r3, r3, #12
c10832e8:	e51b201c 	ldr	r2, [fp, #-28]
c10832ec:	e20220ff 	and	r2, r2, #255	; 0xff
c10832f0:	e5832000 	str	r2, [r3]
c10832f4:	e24bd004 	sub	sp, fp, #4
c10832f8:	e8bd8800 	pop	{fp, pc}

c10832fc <UARTConfigGetExpClk>:
c10832fc:	e92d4800 	push	{fp, lr}
c1083300:	e28db004 	add	fp, sp, #4
c1083304:	e24dd018 	sub	sp, sp, #24
c1083308:	e50b0010 	str	r0, [fp, #-16]
c108330c:	e50b1014 	str	r1, [fp, #-20]
c1083310:	e50b2018 	str	r2, [fp, #-24]
c1083314:	e50b301c 	str	r3, [fp, #-28]
c1083318:	e3a03000 	mov	r3, #0
c108331c:	e50b300c 	str	r3, [fp, #-12]
c1083320:	e3a03000 	mov	r3, #0
c1083324:	e50b3008 	str	r3, [fp, #-8]
c1083328:	e51b3010 	ldr	r3, [fp, #-16]
c108332c:	e2833020 	add	r3, r3, #32
c1083330:	e5933000 	ldr	r3, [r3]
c1083334:	e50b3008 	str	r3, [fp, #-8]
c1083338:	e51b3010 	ldr	r3, [fp, #-16]
c108333c:	e2833024 	add	r3, r3, #36	; 0x24
c1083340:	e5933000 	ldr	r3, [r3]
c1083344:	e1a03403 	lsl	r3, r3, #8
c1083348:	e51b2008 	ldr	r2, [fp, #-8]
c108334c:	e1823003 	orr	r3, r2, r3
c1083350:	e50b3008 	str	r3, [fp, #-8]
c1083354:	e51b3010 	ldr	r3, [fp, #-16]
c1083358:	e2833034 	add	r3, r3, #52	; 0x34
c108335c:	e5933000 	ldr	r3, [r3]
c1083360:	e2033001 	and	r3, r3, #1
c1083364:	e20330ff 	and	r3, r3, #255	; 0xff
c1083368:	e3530000 	cmp	r3, #0
c108336c:	0a000002 	beq	c108337c <UARTConfigGetExpClk+0x80>
c1083370:	e3a0300d 	mov	r3, #13
c1083374:	e50b300c 	str	r3, [fp, #-12]
c1083378:	ea000001 	b	c1083384 <UARTConfigGetExpClk+0x88>
c108337c:	e3a03010 	mov	r3, #16
c1083380:	e50b300c 	str	r3, [fp, #-12]
c1083384:	e51b3008 	ldr	r3, [fp, #-8]
c1083388:	e51b200c 	ldr	r2, [fp, #-12]
c108338c:	e0030392 	mul	r3, r2, r3
c1083390:	e51b0014 	ldr	r0, [fp, #-20]
c1083394:	e1a01003 	mov	r1, r3
c1083398:	eb00084b 	bl	c10854cc <__aeabi_uidiv>
c108339c:	e1a03000 	mov	r3, r0
c10833a0:	e1a02003 	mov	r2, r3
c10833a4:	e51b3018 	ldr	r3, [fp, #-24]
c10833a8:	e5832000 	str	r2, [r3]
c10833ac:	e51b3010 	ldr	r3, [fp, #-16]
c10833b0:	e283300c 	add	r3, r3, #12
c10833b4:	e5932000 	ldr	r2, [r3]
c10833b8:	e51b301c 	ldr	r3, [fp, #-28]
c10833bc:	e5832000 	str	r2, [r3]
c10833c0:	e51b301c 	ldr	r3, [fp, #-28]
c10833c4:	e5933000 	ldr	r3, [r3]
c10833c8:	e20320ff 	and	r2, r3, #255	; 0xff
c10833cc:	e51b301c 	ldr	r3, [fp, #-28]
c10833d0:	e5832000 	str	r2, [r3]
c10833d4:	e24bd004 	sub	sp, fp, #4
c10833d8:	e8bd8800 	pop	{fp, pc}

c10833dc <UARTFIFOLevelSet>:
c10833dc:	e52db004 	push	{fp}		; (str fp, [sp, #-4]!)
c10833e0:	e28db000 	add	fp, sp, #0
c10833e4:	e24dd00c 	sub	sp, sp, #12
c10833e8:	e50b0008 	str	r0, [fp, #-8]
c10833ec:	e50b100c 	str	r1, [fp, #-12]
c10833f0:	e51b3008 	ldr	r3, [fp, #-8]
c10833f4:	e2833008 	add	r3, r3, #8
c10833f8:	e51b200c 	ldr	r2, [fp, #-12]
c10833fc:	e20220c0 	and	r2, r2, #192	; 0xc0
c1083400:	e3822001 	orr	r2, r2, #1
c1083404:	e5832000 	str	r2, [r3]
c1083408:	e28bd000 	add	sp, fp, #0
c108340c:	e8bd0800 	pop	{fp}
c1083410:	e12fff1e 	bx	lr

c1083414 <UARTDMAEnable>:
c1083414:	e52db004 	push	{fp}		; (str fp, [sp, #-4]!)
c1083418:	e28db000 	add	fp, sp, #0
c108341c:	e24dd00c 	sub	sp, sp, #12
c1083420:	e50b0008 	str	r0, [fp, #-8]
c1083424:	e50b100c 	str	r1, [fp, #-12]
c1083428:	e51b3008 	ldr	r3, [fp, #-8]
c108342c:	e2833008 	add	r3, r3, #8
c1083430:	e51b200c 	ldr	r2, [fp, #-12]
c1083434:	e20220c9 	and	r2, r2, #201	; 0xc9
c1083438:	e5832000 	str	r2, [r3]
c108343c:	e28bd000 	add	sp, fp, #0
c1083440:	e8bd0800 	pop	{fp}
c1083444:	e12fff1e 	bx	lr

c1083448 <UARTDMADisable>:
c1083448:	e52db004 	push	{fp}		; (str fp, [sp, #-4]!)
c108344c:	e28db000 	add	fp, sp, #0
c1083450:	e24dd00c 	sub	sp, sp, #12
c1083454:	e50b0008 	str	r0, [fp, #-8]
c1083458:	e50b100c 	str	r1, [fp, #-12]
c108345c:	e51b3008 	ldr	r3, [fp, #-8]
c1083460:	e2833008 	add	r3, r3, #8
c1083464:	e51b200c 	ldr	r2, [fp, #-12]
c1083468:	e20220c1 	and	r2, r2, #193	; 0xc1
c108346c:	e5832000 	str	r2, [r3]
c1083470:	e28bd000 	add	sp, fp, #0
c1083474:	e8bd0800 	pop	{fp}
c1083478:	e12fff1e 	bx	lr

c108347c <UARTParityModeSet>:
c108347c:	e52db004 	push	{fp}		; (str fp, [sp, #-4]!)
c1083480:	e28db000 	add	fp, sp, #0
c1083484:	e24dd00c 	sub	sp, sp, #12
c1083488:	e50b0008 	str	r0, [fp, #-8]
c108348c:	e50b100c 	str	r1, [fp, #-12]
c1083490:	e51b3008 	ldr	r3, [fp, #-8]
c1083494:	e283300c 	add	r3, r3, #12
c1083498:	e51b2008 	ldr	r2, [fp, #-8]
c108349c:	e282200c 	add	r2, r2, #12
c10834a0:	e5922000 	ldr	r2, [r2]
c10834a4:	e3c22038 	bic	r2, r2, #56	; 0x38
c10834a8:	e5832000 	str	r2, [r3]
c10834ac:	e51b3008 	ldr	r3, [fp, #-8]
c10834b0:	e283300c 	add	r3, r3, #12
c10834b4:	e51b2008 	ldr	r2, [fp, #-8]
c10834b8:	e282200c 	add	r2, r2, #12
c10834bc:	e5921000 	ldr	r1, [r2]
c10834c0:	e51b200c 	ldr	r2, [fp, #-12]
c10834c4:	e2022038 	and	r2, r2, #56	; 0x38
c10834c8:	e1812002 	orr	r2, r1, r2
c10834cc:	e5832000 	str	r2, [r3]
c10834d0:	e28bd000 	add	sp, fp, #0
c10834d4:	e8bd0800 	pop	{fp}
c10834d8:	e12fff1e 	bx	lr

c10834dc <UARTParityModeGet>:
c10834dc:	e52db004 	push	{fp}		; (str fp, [sp, #-4]!)
c10834e0:	e28db000 	add	fp, sp, #0
c10834e4:	e24dd014 	sub	sp, sp, #20
c10834e8:	e50b0010 	str	r0, [fp, #-16]
c10834ec:	e3a03038 	mov	r3, #56	; 0x38
c10834f0:	e50b3008 	str	r3, [fp, #-8]
c10834f4:	e51b3010 	ldr	r3, [fp, #-16]
c10834f8:	e283300c 	add	r3, r3, #12
c10834fc:	e5932000 	ldr	r2, [r3]
c1083500:	e51b3008 	ldr	r3, [fp, #-8]
c1083504:	e0023003 	and	r3, r2, r3
c1083508:	e1a00003 	mov	r0, r3
c108350c:	e28bd000 	add	sp, fp, #0
c1083510:	e8bd0800 	pop	{fp}
c1083514:	e12fff1e 	bx	lr

c1083518 <UARTEnable>:
c1083518:	e52db004 	push	{fp}		; (str fp, [sp, #-4]!)
c108351c:	e28db000 	add	fp, sp, #0
c1083520:	e24dd00c 	sub	sp, sp, #12
c1083524:	e50b0008 	str	r0, [fp, #-8]
c1083528:	e51b3008 	ldr	r3, [fp, #-8]
c108352c:	e2833030 	add	r3, r3, #48	; 0x30
c1083530:	e59f200c 	ldr	r2, [pc, #12]	; c1083544 <UARTEnable+0x2c>
c1083534:	e5832000 	str	r2, [r3]
c1083538:	e28bd000 	add	sp, fp, #0
c108353c:	e8bd0800 	pop	{fp}
c1083540:	e12fff1e 	bx	lr
c1083544:	00006001 	.word	0x00006001

c1083548 <UARTDisable>:
c1083548:	e52db004 	push	{fp}		; (str fp, [sp, #-4]!)
c108354c:	e28db000 	add	fp, sp, #0
c1083550:	e24dd00c 	sub	sp, sp, #12
c1083554:	e50b0008 	str	r0, [fp, #-8]
c1083558:	e51b3008 	ldr	r3, [fp, #-8]
c108355c:	e2833030 	add	r3, r3, #48	; 0x30
c1083560:	e1a02003 	mov	r2, r3
c1083564:	e51b3008 	ldr	r3, [fp, #-8]
c1083568:	e2833030 	add	r3, r3, #48	; 0x30
c108356c:	e5933000 	ldr	r3, [r3]
c1083570:	e3c33a06 	bic	r3, r3, #24576	; 0x6000
c1083574:	e3c33001 	bic	r3, r3, #1
c1083578:	e5823000 	str	r3, [r2]
c108357c:	e28bd000 	add	sp, fp, #0
c1083580:	e8bd0800 	pop	{fp}
c1083584:	e12fff1e 	bx	lr

c1083588 <UARTFIFOEnable>:
c1083588:	e52db004 	push	{fp}		; (str fp, [sp, #-4]!)
c108358c:	e28db000 	add	fp, sp, #0
c1083590:	e24dd00c 	sub	sp, sp, #12
c1083594:	e50b0008 	str	r0, [fp, #-8]
c1083598:	e51b3008 	ldr	r3, [fp, #-8]
c108359c:	e2833008 	add	r3, r3, #8
c10835a0:	e3a02007 	mov	r2, #7
c10835a4:	e5832000 	str	r2, [r3]
c10835a8:	e28bd000 	add	sp, fp, #0
c10835ac:	e8bd0800 	pop	{fp}
c10835b0:	e12fff1e 	bx	lr

c10835b4 <UARTFIFODisable>:
c10835b4:	e52db004 	push	{fp}		; (str fp, [sp, #-4]!)
c10835b8:	e28db000 	add	fp, sp, #0
c10835bc:	e24dd00c 	sub	sp, sp, #12
c10835c0:	e50b0008 	str	r0, [fp, #-8]
c10835c4:	e51b3008 	ldr	r3, [fp, #-8]
c10835c8:	e2833008 	add	r3, r3, #8
c10835cc:	e3a02000 	mov	r2, #0
c10835d0:	e5832000 	str	r2, [r3]
c10835d4:	e28bd000 	add	sp, fp, #0
c10835d8:	e8bd0800 	pop	{fp}
c10835dc:	e12fff1e 	bx	lr

c10835e0 <UARTSpaceAvail>:
c10835e0:	e52db004 	push	{fp}		; (str fp, [sp, #-4]!)
c10835e4:	e28db000 	add	fp, sp, #0
c10835e8:	e24dd014 	sub	sp, sp, #20
c10835ec:	e50b0010 	str	r0, [fp, #-16]
c10835f0:	e3a03000 	mov	r3, #0
c10835f4:	e50b3008 	str	r3, [fp, #-8]
c10835f8:	e51b3010 	ldr	r3, [fp, #-16]
c10835fc:	e2833014 	add	r3, r3, #20
c1083600:	e5933000 	ldr	r3, [r3]
c1083604:	e2033060 	and	r3, r3, #96	; 0x60
c1083608:	e3530000 	cmp	r3, #0
c108360c:	0a000001 	beq	c1083618 <UARTSpaceAvail+0x38>
c1083610:	e3a03001 	mov	r3, #1
c1083614:	e50b3008 	str	r3, [fp, #-8]
c1083618:	e51b3008 	ldr	r3, [fp, #-8]
c108361c:	e1a00003 	mov	r0, r3
c1083620:	e28bd000 	add	sp, fp, #0
c1083624:	e8bd0800 	pop	{fp}
c1083628:	e12fff1e 	bx	lr

c108362c <UARTCharsAvail>:
c108362c:	e52db004 	push	{fp}		; (str fp, [sp, #-4]!)
c1083630:	e28db000 	add	fp, sp, #0
c1083634:	e24dd014 	sub	sp, sp, #20
c1083638:	e50b0010 	str	r0, [fp, #-16]
c108363c:	e3a03000 	mov	r3, #0
c1083640:	e50b3008 	str	r3, [fp, #-8]
c1083644:	e51b3010 	ldr	r3, [fp, #-16]
c1083648:	e2833014 	add	r3, r3, #20
c108364c:	e5933000 	ldr	r3, [r3]
c1083650:	e2033001 	and	r3, r3, #1
c1083654:	e20330ff 	and	r3, r3, #255	; 0xff
c1083658:	e3530000 	cmp	r3, #0
c108365c:	0a000001 	beq	c1083668 <UARTCharsAvail+0x3c>
c1083660:	e3a03001 	mov	r3, #1
c1083664:	e50b3008 	str	r3, [fp, #-8]
c1083668:	e51b3008 	ldr	r3, [fp, #-8]
c108366c:	e1a00003 	mov	r0, r3
c1083670:	e28bd000 	add	sp, fp, #0
c1083674:	e8bd0800 	pop	{fp}
c1083678:	e12fff1e 	bx	lr

c108367c <UARTRxErrorGet>:
c108367c:	e52db004 	push	{fp}		; (str fp, [sp, #-4]!)
c1083680:	e28db000 	add	fp, sp, #0
c1083684:	e24dd00c 	sub	sp, sp, #12
c1083688:	e50b0008 	str	r0, [fp, #-8]
c108368c:	e51b3008 	ldr	r3, [fp, #-8]
c1083690:	e2833014 	add	r3, r3, #20
c1083694:	e5933000 	ldr	r3, [r3]
c1083698:	e203301e 	and	r3, r3, #30
c108369c:	e1a00003 	mov	r0, r3
c10836a0:	e28bd000 	add	sp, fp, #0
c10836a4:	e8bd0800 	pop	{fp}
c10836a8:	e12fff1e 	bx	lr

c10836ac <UARTCharPutNonBlocking>:
c10836ac:	e52db004 	push	{fp}		; (str fp, [sp, #-4]!)
c10836b0:	e28db000 	add	fp, sp, #0
c10836b4:	e24dd014 	sub	sp, sp, #20
c10836b8:	e50b0010 	str	r0, [fp, #-16]
c10836bc:	e1a03001 	mov	r3, r1
c10836c0:	e54b3011 	strb	r3, [fp, #-17]
c10836c4:	e3a03000 	mov	r3, #0
c10836c8:	e50b3008 	str	r3, [fp, #-8]
c10836cc:	e51b3010 	ldr	r3, [fp, #-16]
c10836d0:	e2833014 	add	r3, r3, #20
c10836d4:	e5933000 	ldr	r3, [r3]
c10836d8:	e2033060 	and	r3, r3, #96	; 0x60
c10836dc:	e3530000 	cmp	r3, #0
c10836e0:	0a000004 	beq	c10836f8 <UARTCharPutNonBlocking+0x4c>
c10836e4:	e51b3010 	ldr	r3, [fp, #-16]
c10836e8:	e55b2011 	ldrb	r2, [fp, #-17]
c10836ec:	e5832000 	str	r2, [r3]
c10836f0:	e3a03001 	mov	r3, #1
c10836f4:	e50b3008 	str	r3, [fp, #-8]
c10836f8:	e51b3008 	ldr	r3, [fp, #-8]
c10836fc:	e1a00003 	mov	r0, r3
c1083700:	e28bd000 	add	sp, fp, #0
c1083704:	e8bd0800 	pop	{fp}
c1083708:	e12fff1e 	bx	lr

c108370c <UARTCharGetNonBlocking>:
c108370c:	e52db004 	push	{fp}		; (str fp, [sp, #-4]!)
c1083710:	e28db000 	add	fp, sp, #0
c1083714:	e24dd014 	sub	sp, sp, #20
c1083718:	e50b0010 	str	r0, [fp, #-16]
c108371c:	e3e03000 	mvn	r3, #0
c1083720:	e50b3008 	str	r3, [fp, #-8]
c1083724:	e51b3010 	ldr	r3, [fp, #-16]
c1083728:	e2833014 	add	r3, r3, #20
c108372c:	e5933000 	ldr	r3, [r3]
c1083730:	e2033001 	and	r3, r3, #1
c1083734:	e20330ff 	and	r3, r3, #255	; 0xff
c1083738:	e3530000 	cmp	r3, #0
c108373c:	0a000002 	beq	c108374c <UARTCharGetNonBlocking+0x40>
c1083740:	e51b3010 	ldr	r3, [fp, #-16]
c1083744:	e5933000 	ldr	r3, [r3]
c1083748:	e50b3008 	str	r3, [fp, #-8]
c108374c:	e51b3008 	ldr	r3, [fp, #-8]
c1083750:	e1a00003 	mov	r0, r3
c1083754:	e28bd000 	add	sp, fp, #0
c1083758:	e8bd0800 	pop	{fp}
c108375c:	e12fff1e 	bx	lr

c1083760 <UARTCharGet>:
c1083760:	e52db004 	push	{fp}		; (str fp, [sp, #-4]!)
c1083764:	e28db000 	add	fp, sp, #0
c1083768:	e24dd014 	sub	sp, sp, #20
c108376c:	e50b0010 	str	r0, [fp, #-16]
c1083770:	e3a03000 	mov	r3, #0
c1083774:	e50b3008 	str	r3, [fp, #-8]
c1083778:	e51b3010 	ldr	r3, [fp, #-16]
c108377c:	e2833014 	add	r3, r3, #20
c1083780:	e5933000 	ldr	r3, [r3]
c1083784:	e2033001 	and	r3, r3, #1
c1083788:	e3530000 	cmp	r3, #0
c108378c:	0afffff9 	beq	c1083778 <UARTCharGet+0x18>
c1083790:	e51b3010 	ldr	r3, [fp, #-16]
c1083794:	e5933000 	ldr	r3, [r3]
c1083798:	e50b3008 	str	r3, [fp, #-8]
c108379c:	e51b3008 	ldr	r3, [fp, #-8]
c10837a0:	e1a00003 	mov	r0, r3
c10837a4:	e28bd000 	add	sp, fp, #0
c10837a8:	e8bd0800 	pop	{fp}
c10837ac:	e12fff1e 	bx	lr

c10837b0 <UARTCharPut>:
c10837b0:	e52db004 	push	{fp}		; (str fp, [sp, #-4]!)
c10837b4:	e28db000 	add	fp, sp, #0
c10837b8:	e24dd014 	sub	sp, sp, #20
c10837bc:	e50b0010 	str	r0, [fp, #-16]
c10837c0:	e1a03001 	mov	r3, r1
c10837c4:	e54b3011 	strb	r3, [fp, #-17]
c10837c8:	e3a03060 	mov	r3, #96	; 0x60
c10837cc:	e50b3008 	str	r3, [fp, #-8]
c10837d0:	e51b3010 	ldr	r3, [fp, #-16]
c10837d4:	e2833014 	add	r3, r3, #20
c10837d8:	e5932000 	ldr	r2, [r3]
c10837dc:	e51b3008 	ldr	r3, [fp, #-8]
c10837e0:	e0022003 	and	r2, r2, r3
c10837e4:	e51b3008 	ldr	r3, [fp, #-8]
c10837e8:	e1520003 	cmp	r2, r3
c10837ec:	1afffff7 	bne	c10837d0 <UARTCharPut+0x20>
c10837f0:	e51b3010 	ldr	r3, [fp, #-16]
c10837f4:	e55b2011 	ldrb	r2, [fp, #-17]
c10837f8:	e5832000 	str	r2, [r3]
c10837fc:	e28bd000 	add	sp, fp, #0
c1083800:	e8bd0800 	pop	{fp}
c1083804:	e12fff1e 	bx	lr

c1083808 <UARTIntEnable>:
c1083808:	e52db004 	push	{fp}		; (str fp, [sp, #-4]!)
c108380c:	e28db000 	add	fp, sp, #0
c1083810:	e24dd00c 	sub	sp, sp, #12
c1083814:	e50b0008 	str	r0, [fp, #-8]
c1083818:	e50b100c 	str	r1, [fp, #-12]
c108381c:	e51b3008 	ldr	r3, [fp, #-8]
c1083820:	e2833004 	add	r3, r3, #4
c1083824:	e51b2008 	ldr	r2, [fp, #-8]
c1083828:	e2822004 	add	r2, r2, #4
c108382c:	e5921000 	ldr	r1, [r2]
c1083830:	e51b200c 	ldr	r2, [fp, #-12]
c1083834:	e202200f 	and	r2, r2, #15
c1083838:	e1812002 	orr	r2, r1, r2
c108383c:	e5832000 	str	r2, [r3]
c1083840:	e28bd000 	add	sp, fp, #0
c1083844:	e8bd0800 	pop	{fp}
c1083848:	e12fff1e 	bx	lr

c108384c <UARTIntDisable>:
c108384c:	e52db004 	push	{fp}		; (str fp, [sp, #-4]!)
c1083850:	e28db000 	add	fp, sp, #0
c1083854:	e24dd00c 	sub	sp, sp, #12
c1083858:	e50b0008 	str	r0, [fp, #-8]
c108385c:	e50b100c 	str	r1, [fp, #-12]
c1083860:	e51b3008 	ldr	r3, [fp, #-8]
c1083864:	e2833004 	add	r3, r3, #4
c1083868:	e51b2008 	ldr	r2, [fp, #-8]
c108386c:	e2822004 	add	r2, r2, #4
c1083870:	e5921000 	ldr	r1, [r2]
c1083874:	e51b200c 	ldr	r2, [fp, #-12]
c1083878:	e202200f 	and	r2, r2, #15
c108387c:	e1e02002 	mvn	r2, r2
c1083880:	e0012002 	and	r2, r1, r2
c1083884:	e5832000 	str	r2, [r3]
c1083888:	e28bd000 	add	sp, fp, #0
c108388c:	e8bd0800 	pop	{fp}
c1083890:	e12fff1e 	bx	lr

c1083894 <UARTIntStatus>:
c1083894:	e52db004 	push	{fp}		; (str fp, [sp, #-4]!)
c1083898:	e28db000 	add	fp, sp, #0
c108389c:	e24dd014 	sub	sp, sp, #20
c10838a0:	e50b0010 	str	r0, [fp, #-16]
c10838a4:	e3a03000 	mov	r3, #0
c10838a8:	e50b3008 	str	r3, [fp, #-8]
c10838ac:	e51b3010 	ldr	r3, [fp, #-16]
c10838b0:	e2833008 	add	r3, r3, #8
c10838b4:	e5933000 	ldr	r3, [r3]
c10838b8:	e50b3008 	str	r3, [fp, #-8]
c10838bc:	e51b3008 	ldr	r3, [fp, #-8]
c10838c0:	e203300e 	and	r3, r3, #14
c10838c4:	e50b3008 	str	r3, [fp, #-8]
c10838c8:	e51b3008 	ldr	r3, [fp, #-8]
c10838cc:	e1a030a3 	lsr	r3, r3, #1
c10838d0:	e50b3008 	str	r3, [fp, #-8]
c10838d4:	e51b3008 	ldr	r3, [fp, #-8]
c10838d8:	e1a00003 	mov	r0, r3
c10838dc:	e28bd000 	add	sp, fp, #0
c10838e0:	e8bd0800 	pop	{fp}
c10838e4:	e12fff1e 	bx	lr

c10838e8 <UARTBreakCtl>:
c10838e8:	e52db004 	push	{fp}		; (str fp, [sp, #-4]!)
c10838ec:	e28db000 	add	fp, sp, #0
c10838f0:	e24dd00c 	sub	sp, sp, #12
c10838f4:	e50b0008 	str	r0, [fp, #-8]
c10838f8:	e50b100c 	str	r1, [fp, #-12]
c10838fc:	e51b300c 	ldr	r3, [fp, #-12]
c1083900:	e3530001 	cmp	r3, #1
c1083904:	1a000007 	bne	c1083928 <UARTBreakCtl+0x40>
c1083908:	e51b3008 	ldr	r3, [fp, #-8]
c108390c:	e283300c 	add	r3, r3, #12
c1083910:	e51b2008 	ldr	r2, [fp, #-8]
c1083914:	e282200c 	add	r2, r2, #12
c1083918:	e5922000 	ldr	r2, [r2]
c108391c:	e3822040 	orr	r2, r2, #64	; 0x40
c1083920:	e5832000 	str	r2, [r3]
c1083924:	ea000006 	b	c1083944 <UARTBreakCtl+0x5c>
c1083928:	e51b3008 	ldr	r3, [fp, #-8]
c108392c:	e283300c 	add	r3, r3, #12
c1083930:	e51b2008 	ldr	r2, [fp, #-8]
c1083934:	e282200c 	add	r2, r2, #12
c1083938:	e5922000 	ldr	r2, [r2]
c108393c:	e3c22040 	bic	r2, r2, #64	; 0x40
c1083940:	e5832000 	str	r2, [r3]
c1083944:	e28bd000 	add	sp, fp, #0
c1083948:	e8bd0800 	pop	{fp}
c108394c:	e12fff1e 	bx	lr

c1083950 <UARTModemControlSet>:
c1083950:	e52db004 	push	{fp}		; (str fp, [sp, #-4]!)
c1083954:	e28db000 	add	fp, sp, #0
c1083958:	e24dd00c 	sub	sp, sp, #12
c108395c:	e50b0008 	str	r0, [fp, #-8]
c1083960:	e50b100c 	str	r1, [fp, #-12]
c1083964:	e51b3008 	ldr	r3, [fp, #-8]
c1083968:	e2833010 	add	r3, r3, #16
c108396c:	e51b2008 	ldr	r2, [fp, #-8]
c1083970:	e2822010 	add	r2, r2, #16
c1083974:	e5922000 	ldr	r2, [r2]
c1083978:	e3c22022 	bic	r2, r2, #34	; 0x22
c108397c:	e5832000 	str	r2, [r3]
c1083980:	e51b3008 	ldr	r3, [fp, #-8]
c1083984:	e2833010 	add	r3, r3, #16
c1083988:	e51b2008 	ldr	r2, [fp, #-8]
c108398c:	e2822010 	add	r2, r2, #16
c1083990:	e5921000 	ldr	r1, [r2]
c1083994:	e51b200c 	ldr	r2, [fp, #-12]
c1083998:	e2022022 	and	r2, r2, #34	; 0x22
c108399c:	e1812002 	orr	r2, r1, r2
c10839a0:	e5832000 	str	r2, [r3]
c10839a4:	e28bd000 	add	sp, fp, #0
c10839a8:	e8bd0800 	pop	{fp}
c10839ac:	e12fff1e 	bx	lr

c10839b0 <UARTModemControlClear>:
c10839b0:	e52db004 	push	{fp}		; (str fp, [sp, #-4]!)
c10839b4:	e28db000 	add	fp, sp, #0
c10839b8:	e24dd00c 	sub	sp, sp, #12
c10839bc:	e50b0008 	str	r0, [fp, #-8]
c10839c0:	e50b100c 	str	r1, [fp, #-12]
c10839c4:	e51b3008 	ldr	r3, [fp, #-8]
c10839c8:	e2833010 	add	r3, r3, #16
c10839cc:	e51b2008 	ldr	r2, [fp, #-8]
c10839d0:	e2822010 	add	r2, r2, #16
c10839d4:	e5921000 	ldr	r1, [r2]
c10839d8:	e51b200c 	ldr	r2, [fp, #-12]
c10839dc:	e2022022 	and	r2, r2, #34	; 0x22
c10839e0:	e1e02002 	mvn	r2, r2
c10839e4:	e0012002 	and	r2, r1, r2
c10839e8:	e5832000 	str	r2, [r3]
c10839ec:	e28bd000 	add	sp, fp, #0
c10839f0:	e8bd0800 	pop	{fp}
c10839f4:	e12fff1e 	bx	lr

c10839f8 <UARTModemControlGet>:
c10839f8:	e52db004 	push	{fp}		; (str fp, [sp, #-4]!)
c10839fc:	e28db000 	add	fp, sp, #0
c1083a00:	e24dd00c 	sub	sp, sp, #12
c1083a04:	e50b0008 	str	r0, [fp, #-8]
c1083a08:	e51b3008 	ldr	r3, [fp, #-8]
c1083a0c:	e2833010 	add	r3, r3, #16
c1083a10:	e5933000 	ldr	r3, [r3]
c1083a14:	e2033022 	and	r3, r3, #34	; 0x22
c1083a18:	e1a00003 	mov	r0, r3
c1083a1c:	e28bd000 	add	sp, fp, #0
c1083a20:	e8bd0800 	pop	{fp}
c1083a24:	e12fff1e 	bx	lr

c1083a28 <UARTModemStatusGet>:
c1083a28:	e52db004 	push	{fp}		; (str fp, [sp, #-4]!)
c1083a2c:	e28db000 	add	fp, sp, #0
c1083a30:	e24dd00c 	sub	sp, sp, #12
c1083a34:	e50b0008 	str	r0, [fp, #-8]
c1083a38:	e51b3008 	ldr	r3, [fp, #-8]
c1083a3c:	e2833018 	add	r3, r3, #24
c1083a40:	e5933000 	ldr	r3, [r3]
c1083a44:	e2033078 	and	r3, r3, #120	; 0x78
c1083a48:	e1a00003 	mov	r0, r3
c1083a4c:	e28bd000 	add	sp, fp, #0
c1083a50:	e8bd0800 	pop	{fp}
c1083a54:	e12fff1e 	bx	lr

c1083a58 <UARTPinMuxSetup>:
c1083a58:	e52db004 	push	{fp}		; (str fp, [sp, #-4]!)
c1083a5c:	e28db000 	add	fp, sp, #0
c1083a60:	e24dd014 	sub	sp, sp, #20
c1083a64:	e50b0010 	str	r0, [fp, #-16]
c1083a68:	e50b1014 	str	r1, [fp, #-20]
c1083a6c:	e3a03000 	mov	r3, #0
c1083a70:	e50b300c 	str	r3, [fp, #-12]
c1083a74:	e3a03000 	mov	r3, #0
c1083a78:	e50b3008 	str	r3, [fp, #-8]
c1083a7c:	e51b3010 	ldr	r3, [fp, #-16]
c1083a80:	e3530000 	cmp	r3, #0
c1083a84:	1a000013 	bne	c1083ad8 <UARTPinMuxSetup+0x80>
c1083a88:	e51b3014 	ldr	r3, [fp, #-20]
c1083a8c:	e3530001 	cmp	r3, #1
c1083a90:	1a000007 	bne	c1083ab4 <UARTPinMuxSetup+0x5c>
c1083a94:	e59f30fc 	ldr	r3, [pc, #252]	; c1083b98 <UARTPinMuxSetup+0x140>
c1083a98:	e5933000 	ldr	r3, [r3]
c1083a9c:	e3c334ff 	bic	r3, r3, #-16777216	; 0xff000000
c1083aa0:	e50b300c 	str	r3, [fp, #-12]
c1083aa4:	e59f30ec 	ldr	r3, [pc, #236]	; c1083b98 <UARTPinMuxSetup+0x140>
c1083aa8:	e51b200c 	ldr	r2, [fp, #-12]
c1083aac:	e3822422 	orr	r2, r2, #570425344	; 0x22000000
c1083ab0:	e5832000 	str	r2, [r3]
c1083ab4:	e59f30dc 	ldr	r3, [pc, #220]	; c1083b98 <UARTPinMuxSetup+0x140>
c1083ab8:	e5933000 	ldr	r3, [r3]
c1083abc:	e3c338ff 	bic	r3, r3, #16711680	; 0xff0000
c1083ac0:	e50b3008 	str	r3, [fp, #-8]
c1083ac4:	e59f30cc 	ldr	r3, [pc, #204]	; c1083b98 <UARTPinMuxSetup+0x140>
c1083ac8:	e51b2008 	ldr	r2, [fp, #-8]
c1083acc:	e3822822 	orr	r2, r2, #2228224	; 0x220000
c1083ad0:	e5832000 	str	r2, [r3]
c1083ad4:	ea00002c 	b	c1083b8c <UARTPinMuxSetup+0x134>
c1083ad8:	e51b3010 	ldr	r3, [fp, #-16]
c1083adc:	e3530001 	cmp	r3, #1
c1083ae0:	1a000013 	bne	c1083b34 <UARTPinMuxSetup+0xdc>
c1083ae4:	e51b3014 	ldr	r3, [fp, #-20]
c1083ae8:	e3530001 	cmp	r3, #1
c1083aec:	1a000007 	bne	c1083b10 <UARTPinMuxSetup+0xb8>
c1083af0:	e59f30a4 	ldr	r3, [pc, #164]	; c1083b9c <UARTPinMuxSetup+0x144>
c1083af4:	e5933000 	ldr	r3, [r3]
c1083af8:	e3c338ff 	bic	r3, r3, #16711680	; 0xff0000
c1083afc:	e50b300c 	str	r3, [fp, #-12]
c1083b00:	e59f3094 	ldr	r3, [pc, #148]	; c1083b9c <UARTPinMuxSetup+0x144>
c1083b04:	e51b200c 	ldr	r2, [fp, #-12]
c1083b08:	e3822711 	orr	r2, r2, #4456448	; 0x440000
c1083b0c:	e5832000 	str	r2, [r3]
c1083b10:	e59f3088 	ldr	r3, [pc, #136]	; c1083ba0 <UARTPinMuxSetup+0x148>
c1083b14:	e5933000 	ldr	r3, [r3]
c1083b18:	e3c334ff 	bic	r3, r3, #-16777216	; 0xff000000
c1083b1c:	e50b3008 	str	r3, [fp, #-8]
c1083b20:	e59f3078 	ldr	r3, [pc, #120]	; c1083ba0 <UARTPinMuxSetup+0x148>
c1083b24:	e51b2008 	ldr	r2, [fp, #-8]
c1083b28:	e3822422 	orr	r2, r2, #570425344	; 0x22000000
c1083b2c:	e5832000 	str	r2, [r3]
c1083b30:	ea000015 	b	c1083b8c <UARTPinMuxSetup+0x134>
c1083b34:	e51b3010 	ldr	r3, [fp, #-16]
c1083b38:	e3530002 	cmp	r3, #2
c1083b3c:	1a000012 	bne	c1083b8c <UARTPinMuxSetup+0x134>
c1083b40:	e51b3014 	ldr	r3, [fp, #-20]
c1083b44:	e3530001 	cmp	r3, #1
c1083b48:	1a000007 	bne	c1083b6c <UARTPinMuxSetup+0x114>
c1083b4c:	e59f3048 	ldr	r3, [pc, #72]	; c1083b9c <UARTPinMuxSetup+0x144>
c1083b50:	e5933000 	ldr	r3, [r3]
c1083b54:	e3c334ff 	bic	r3, r3, #-16777216	; 0xff000000
c1083b58:	e50b300c 	str	r3, [fp, #-12]
c1083b5c:	e59f3038 	ldr	r3, [pc, #56]	; c1083b9c <UARTPinMuxSetup+0x144>
c1083b60:	e51b200c 	ldr	r2, [fp, #-12]
c1083b64:	e3822311 	orr	r2, r2, #1140850688	; 0x44000000
c1083b68:	e5832000 	str	r2, [r3]
c1083b6c:	e59f302c 	ldr	r3, [pc, #44]	; c1083ba0 <UARTPinMuxSetup+0x148>
c1083b70:	e5933000 	ldr	r3, [r3]
c1083b74:	e3c338ff 	bic	r3, r3, #16711680	; 0xff0000
c1083b78:	e50b3008 	str	r3, [fp, #-8]
c1083b7c:	e59f301c 	ldr	r3, [pc, #28]	; c1083ba0 <UARTPinMuxSetup+0x148>
c1083b80:	e51b2008 	ldr	r2, [fp, #-8]
c1083b84:	e3822822 	orr	r2, r2, #2228224	; 0x220000
c1083b88:	e5832000 	str	r2, [r3]
c1083b8c:	e28bd000 	add	sp, fp, #0
c1083b90:	e8bd0800 	pop	{fp}
c1083b94:	e12fff1e 	bx	lr
c1083b98:	01c1412c 	.word	0x01c1412c
c1083b9c:	01c14120 	.word	0x01c14120
c1083ba0:	01c14130 	.word	0x01c14130

c1083ba4 <fprintf>:
c1083ba4:	e92d000e 	push	{r1, r2, r3}
c1083ba8:	e92d4800 	push	{fp, lr}
c1083bac:	e28db004 	add	fp, sp, #4
c1083bb0:	e24dd014 	sub	sp, sp, #20
c1083bb4:	e50b0014 	str	r0, [fp, #-20]
c1083bb8:	e28b3008 	add	r3, fp, #8
c1083bbc:	e50b3010 	str	r3, [fp, #-16]
c1083bc0:	e51b0014 	ldr	r0, [fp, #-20]
c1083bc4:	e59b1004 	ldr	r1, [fp, #4]
c1083bc8:	e51b2010 	ldr	r2, [fp, #-16]
c1083bcc:	eb00015d 	bl	c1084148 <vfprintf>
c1083bd0:	e1a03000 	mov	r3, r0
c1083bd4:	e50b300c 	str	r3, [fp, #-12]
c1083bd8:	e51b300c 	ldr	r3, [fp, #-12]
c1083bdc:	e1a00003 	mov	r0, r3
c1083be0:	e24bd004 	sub	sp, fp, #4
c1083be4:	e8bd4800 	pop	{fp, lr}
c1083be8:	e28dd00c 	add	sp, sp, #12
c1083bec:	e12fff1e 	bx	lr

c1083bf0 <memcpy>:
c1083bf0:	e52db004 	push	{fp}		; (str fp, [sp, #-4]!)
c1083bf4:	e28db000 	add	fp, sp, #0
c1083bf8:	e24dd02c 	sub	sp, sp, #44	; 0x2c
c1083bfc:	e50b0020 	str	r0, [fp, #-32]
c1083c00:	e50b1024 	str	r1, [fp, #-36]	; 0x24
c1083c04:	e50b2028 	str	r2, [fp, #-40]	; 0x28
c1083c08:	e3a03003 	mov	r3, #3
c1083c0c:	e50b3018 	str	r3, [fp, #-24]
c1083c10:	e51b2020 	ldr	r2, [fp, #-32]
c1083c14:	e51b3018 	ldr	r3, [fp, #-24]
c1083c18:	e0023003 	and	r3, r2, r3
c1083c1c:	e3530000 	cmp	r3, #0
c1083c20:	1a000009 	bne	c1083c4c <memcpy+0x5c>
c1083c24:	e51b2024 	ldr	r2, [fp, #-36]	; 0x24
c1083c28:	e51b3018 	ldr	r3, [fp, #-24]
c1083c2c:	e0023003 	and	r3, r2, r3
c1083c30:	e3530000 	cmp	r3, #0
c1083c34:	1a000004 	bne	c1083c4c <memcpy+0x5c>
c1083c38:	e51b2028 	ldr	r2, [fp, #-40]	; 0x28
c1083c3c:	e51b3018 	ldr	r3, [fp, #-24]
c1083c40:	e0023003 	and	r3, r2, r3
c1083c44:	e3530000 	cmp	r3, #0
c1083c48:	0a000018 	beq	c1083cb0 <memcpy+0xc0>
c1083c4c:	e51b3024 	ldr	r3, [fp, #-36]	; 0x24
c1083c50:	e50b3014 	str	r3, [fp, #-20]
c1083c54:	e51b3020 	ldr	r3, [fp, #-32]
c1083c58:	e50b3010 	str	r3, [fp, #-16]
c1083c5c:	e3a03000 	mov	r3, #0
c1083c60:	e50b301c 	str	r3, [fp, #-28]
c1083c64:	ea00000c 	b	c1083c9c <memcpy+0xac>
c1083c68:	e51b3014 	ldr	r3, [fp, #-20]
c1083c6c:	e5d32000 	ldrb	r2, [r3]
c1083c70:	e51b3010 	ldr	r3, [fp, #-16]
c1083c74:	e5c32000 	strb	r2, [r3]
c1083c78:	e51b3010 	ldr	r3, [fp, #-16]
c1083c7c:	e2833001 	add	r3, r3, #1
c1083c80:	e50b3010 	str	r3, [fp, #-16]
c1083c84:	e51b3014 	ldr	r3, [fp, #-20]
c1083c88:	e2833001 	add	r3, r3, #1
c1083c8c:	e50b3014 	str	r3, [fp, #-20]
c1083c90:	e51b301c 	ldr	r3, [fp, #-28]
c1083c94:	e2833001 	add	r3, r3, #1
c1083c98:	e50b301c 	str	r3, [fp, #-28]
c1083c9c:	e51b201c 	ldr	r2, [fp, #-28]
c1083ca0:	e51b3028 	ldr	r3, [fp, #-40]	; 0x28
c1083ca4:	e1520003 	cmp	r2, r3
c1083ca8:	3affffee 	bcc	c1083c68 <memcpy+0x78>
c1083cac:	ea00001a 	b	c1083d1c <memcpy+0x12c>
c1083cb0:	e51b3024 	ldr	r3, [fp, #-36]	; 0x24
c1083cb4:	e50b300c 	str	r3, [fp, #-12]
c1083cb8:	e51b3020 	ldr	r3, [fp, #-32]
c1083cbc:	e50b3008 	str	r3, [fp, #-8]
c1083cc0:	e51b3028 	ldr	r3, [fp, #-40]	; 0x28
c1083cc4:	e1a03123 	lsr	r3, r3, #2
c1083cc8:	e50b3028 	str	r3, [fp, #-40]	; 0x28
c1083ccc:	e3a03000 	mov	r3, #0
c1083cd0:	e50b301c 	str	r3, [fp, #-28]
c1083cd4:	ea00000c 	b	c1083d0c <memcpy+0x11c>
c1083cd8:	e51b300c 	ldr	r3, [fp, #-12]
c1083cdc:	e5932000 	ldr	r2, [r3]
c1083ce0:	e51b3008 	ldr	r3, [fp, #-8]
c1083ce4:	e5832000 	str	r2, [r3]
c1083ce8:	e51b3008 	ldr	r3, [fp, #-8]
c1083cec:	e2833004 	add	r3, r3, #4
c1083cf0:	e50b3008 	str	r3, [fp, #-8]
c1083cf4:	e51b300c 	ldr	r3, [fp, #-12]
c1083cf8:	e2833004 	add	r3, r3, #4
c1083cfc:	e50b300c 	str	r3, [fp, #-12]
c1083d00:	e51b301c 	ldr	r3, [fp, #-28]
c1083d04:	e2833001 	add	r3, r3, #1
c1083d08:	e50b301c 	str	r3, [fp, #-28]
c1083d0c:	e51b201c 	ldr	r2, [fp, #-28]
c1083d10:	e51b3028 	ldr	r3, [fp, #-40]	; 0x28
c1083d14:	e1520003 	cmp	r2, r3
c1083d18:	3affffee 	bcc	c1083cd8 <memcpy+0xe8>
c1083d1c:	e51b3020 	ldr	r3, [fp, #-32]
c1083d20:	e1a00003 	mov	r0, r3
c1083d24:	e28bd000 	add	sp, fp, #0
c1083d28:	e8bd0800 	pop	{fp}
c1083d2c:	e12fff1e 	bx	lr

c1083d30 <memset>:
c1083d30:	e52db004 	push	{fp}		; (str fp, [sp, #-4]!)
c1083d34:	e28db000 	add	fp, sp, #0
c1083d38:	e24dd02c 	sub	sp, sp, #44	; 0x2c
c1083d3c:	e50b0020 	str	r0, [fp, #-32]
c1083d40:	e50b1024 	str	r1, [fp, #-36]	; 0x24
c1083d44:	e50b2028 	str	r2, [fp, #-40]	; 0x28
c1083d48:	e51b3020 	ldr	r3, [fp, #-32]
c1083d4c:	e50b3008 	str	r3, [fp, #-8]
c1083d50:	e51b3024 	ldr	r3, [fp, #-36]	; 0x24
c1083d54:	e20330ff 	and	r3, r3, #255	; 0xff
c1083d58:	e50b300c 	str	r3, [fp, #-12]
c1083d5c:	e3a03003 	mov	r3, #3
c1083d60:	e50b3018 	str	r3, [fp, #-24]
c1083d64:	e51b2020 	ldr	r2, [fp, #-32]
c1083d68:	e51b3018 	ldr	r3, [fp, #-24]
c1083d6c:	e0023003 	and	r3, r2, r3
c1083d70:	e3530000 	cmp	r3, #0
c1083d74:	0a000020 	beq	c1083dfc <memset+0xcc>
c1083d78:	e51b2028 	ldr	r2, [fp, #-40]	; 0x28
c1083d7c:	e51b3018 	ldr	r3, [fp, #-24]
c1083d80:	e1520003 	cmp	r2, r3
c1083d84:	9a000004 	bls	c1083d9c <memset+0x6c>
c1083d88:	e51b2020 	ldr	r2, [fp, #-32]
c1083d8c:	e51b3018 	ldr	r3, [fp, #-24]
c1083d90:	e0023003 	and	r3, r2, r3
c1083d94:	e2633004 	rsb	r3, r3, #4
c1083d98:	ea000000 	b	c1083da0 <memset+0x70>
c1083d9c:	e51b3028 	ldr	r3, [fp, #-40]	; 0x28
c1083da0:	e50b301c 	str	r3, [fp, #-28]
c1083da4:	e51b2028 	ldr	r2, [fp, #-40]	; 0x28
c1083da8:	e51b301c 	ldr	r3, [fp, #-28]
c1083dac:	e0633002 	rsb	r3, r3, r2
c1083db0:	e50b3028 	str	r3, [fp, #-40]	; 0x28
c1083db4:	ea000006 	b	c1083dd4 <memset+0xa4>
c1083db8:	e51b300c 	ldr	r3, [fp, #-12]
c1083dbc:	e20320ff 	and	r2, r3, #255	; 0xff
c1083dc0:	e51b3008 	ldr	r3, [fp, #-8]
c1083dc4:	e5c32000 	strb	r2, [r3]
c1083dc8:	e51b3008 	ldr	r3, [fp, #-8]
c1083dcc:	e2833001 	add	r3, r3, #1
c1083dd0:	e50b3008 	str	r3, [fp, #-8]
c1083dd4:	e51b301c 	ldr	r3, [fp, #-28]
c1083dd8:	e3530000 	cmp	r3, #0
c1083ddc:	03a03000 	moveq	r3, #0
c1083de0:	13a03001 	movne	r3, #1
c1083de4:	e20330ff 	and	r3, r3, #255	; 0xff
c1083de8:	e51b201c 	ldr	r2, [fp, #-28]
c1083dec:	e2422001 	sub	r2, r2, #1
c1083df0:	e50b201c 	str	r2, [fp, #-28]
c1083df4:	e3530000 	cmp	r3, #0
c1083df8:	1affffee 	bne	c1083db8 <memset+0x88>
c1083dfc:	e51b3028 	ldr	r3, [fp, #-40]	; 0x28
c1083e00:	e1a03123 	lsr	r3, r3, #2
c1083e04:	e50b301c 	str	r3, [fp, #-28]
c1083e08:	e51b3008 	ldr	r3, [fp, #-8]
c1083e0c:	e50b3010 	str	r3, [fp, #-16]
c1083e10:	e51b300c 	ldr	r3, [fp, #-12]
c1083e14:	e1a02403 	lsl	r2, r3, #8
c1083e18:	e51b300c 	ldr	r3, [fp, #-12]
c1083e1c:	e1822003 	orr	r2, r2, r3
c1083e20:	e51b300c 	ldr	r3, [fp, #-12]
c1083e24:	e1a03803 	lsl	r3, r3, #16
c1083e28:	e1822003 	orr	r2, r2, r3
c1083e2c:	e51b300c 	ldr	r3, [fp, #-12]
c1083e30:	e1a03c03 	lsl	r3, r3, #24
c1083e34:	e1823003 	orr	r3, r2, r3
c1083e38:	e50b3014 	str	r3, [fp, #-20]
c1083e3c:	ea000028 	b	c1083ee4 <memset+0x1b4>
c1083e40:	e51b301c 	ldr	r3, [fp, #-28]
c1083e44:	e2033003 	and	r3, r3, #3
c1083e48:	e3530000 	cmp	r3, #0
c1083e4c:	1a00001b 	bne	c1083ec0 <memset+0x190>
c1083e50:	e51b301c 	ldr	r3, [fp, #-28]
c1083e54:	e2433004 	sub	r3, r3, #4
c1083e58:	e50b301c 	str	r3, [fp, #-28]
c1083e5c:	e51b3010 	ldr	r3, [fp, #-16]
c1083e60:	e51b2014 	ldr	r2, [fp, #-20]
c1083e64:	e5832000 	str	r2, [r3]
c1083e68:	e51b3010 	ldr	r3, [fp, #-16]
c1083e6c:	e2833004 	add	r3, r3, #4
c1083e70:	e50b3010 	str	r3, [fp, #-16]
c1083e74:	e51b3010 	ldr	r3, [fp, #-16]
c1083e78:	e51b2014 	ldr	r2, [fp, #-20]
c1083e7c:	e5832000 	str	r2, [r3]
c1083e80:	e51b3010 	ldr	r3, [fp, #-16]
c1083e84:	e2833004 	add	r3, r3, #4
c1083e88:	e50b3010 	str	r3, [fp, #-16]
c1083e8c:	e51b3010 	ldr	r3, [fp, #-16]
c1083e90:	e51b2014 	ldr	r2, [fp, #-20]
c1083e94:	e5832000 	str	r2, [r3]
c1083e98:	e51b3010 	ldr	r3, [fp, #-16]
c1083e9c:	e2833004 	add	r3, r3, #4
c1083ea0:	e50b3010 	str	r3, [fp, #-16]
c1083ea4:	e51b3010 	ldr	r3, [fp, #-16]
c1083ea8:	e51b2014 	ldr	r2, [fp, #-20]
c1083eac:	e5832000 	str	r2, [r3]
c1083eb0:	e51b3010 	ldr	r3, [fp, #-16]
c1083eb4:	e2833004 	add	r3, r3, #4
c1083eb8:	e50b3010 	str	r3, [fp, #-16]
c1083ebc:	ea000008 	b	c1083ee4 <memset+0x1b4>
c1083ec0:	e51b301c 	ldr	r3, [fp, #-28]
c1083ec4:	e2433001 	sub	r3, r3, #1
c1083ec8:	e50b301c 	str	r3, [fp, #-28]
c1083ecc:	e51b3010 	ldr	r3, [fp, #-16]
c1083ed0:	e51b2014 	ldr	r2, [fp, #-20]
c1083ed4:	e5832000 	str	r2, [r3]
c1083ed8:	e51b3010 	ldr	r3, [fp, #-16]
c1083edc:	e2833004 	add	r3, r3, #4
c1083ee0:	e50b3010 	str	r3, [fp, #-16]
c1083ee4:	e51b301c 	ldr	r3, [fp, #-28]
c1083ee8:	e3530000 	cmp	r3, #0
c1083eec:	1affffd3 	bne	c1083e40 <memset+0x110>
c1083ef0:	e51b3010 	ldr	r3, [fp, #-16]
c1083ef4:	e50b3008 	str	r3, [fp, #-8]
c1083ef8:	e51b2028 	ldr	r2, [fp, #-40]	; 0x28
c1083efc:	e51b3018 	ldr	r3, [fp, #-24]
c1083f00:	e0023003 	and	r3, r2, r3
c1083f04:	e50b301c 	str	r3, [fp, #-28]
c1083f08:	ea000006 	b	c1083f28 <memset+0x1f8>
c1083f0c:	e51b300c 	ldr	r3, [fp, #-12]
c1083f10:	e20320ff 	and	r2, r3, #255	; 0xff
c1083f14:	e51b3008 	ldr	r3, [fp, #-8]
c1083f18:	e5c32000 	strb	r2, [r3]
c1083f1c:	e51b3008 	ldr	r3, [fp, #-8]
c1083f20:	e2833001 	add	r3, r3, #1
c1083f24:	e50b3008 	str	r3, [fp, #-8]
c1083f28:	e51b301c 	ldr	r3, [fp, #-28]
c1083f2c:	e3530000 	cmp	r3, #0
c1083f30:	03a03000 	moveq	r3, #0
c1083f34:	13a03001 	movne	r3, #1
c1083f38:	e20330ff 	and	r3, r3, #255	; 0xff
c1083f3c:	e51b201c 	ldr	r2, [fp, #-28]
c1083f40:	e2422001 	sub	r2, r2, #1
c1083f44:	e50b201c 	str	r2, [fp, #-28]
c1083f48:	e3530000 	cmp	r3, #0
c1083f4c:	1affffee 	bne	c1083f0c <memset+0x1dc>
c1083f50:	e51b3020 	ldr	r3, [fp, #-32]
c1083f54:	e1a00003 	mov	r0, r3
c1083f58:	e28bd000 	add	sp, fp, #0
c1083f5c:	e8bd0800 	pop	{fp}
c1083f60:	e12fff1e 	bx	lr

c1083f64 <printf>:
c1083f64:	e92d000f 	push	{r0, r1, r2, r3}
c1083f68:	e92d4800 	push	{fp, lr}
c1083f6c:	e28db004 	add	fp, sp, #4
c1083f70:	e24dd008 	sub	sp, sp, #8
c1083f74:	e28b3008 	add	r3, fp, #8
c1083f78:	e50b300c 	str	r3, [fp, #-12]
c1083f7c:	e59f3030 	ldr	r3, [pc, #48]	; c1083fb4 <printf+0x50>
c1083f80:	e5933000 	ldr	r3, [r3]
c1083f84:	e1a00003 	mov	r0, r3
c1083f88:	e59b1004 	ldr	r1, [fp, #4]
c1083f8c:	e51b200c 	ldr	r2, [fp, #-12]
c1083f90:	eb00006c 	bl	c1084148 <vfprintf>
c1083f94:	e1a03000 	mov	r3, r0
c1083f98:	e50b3008 	str	r3, [fp, #-8]
c1083f9c:	e51b3008 	ldr	r3, [fp, #-8]
c1083fa0:	e1a00003 	mov	r0, r3
c1083fa4:	e24bd004 	sub	sp, fp, #4
c1083fa8:	e8bd4800 	pop	{fp, lr}
c1083fac:	e28dd010 	add	sp, sp, #16
c1083fb0:	e12fff1e 	bx	lr
c1083fb4:	c110f81c 	.word	0xc110f81c

c1083fb8 <strcmp>:
c1083fb8:	e52db004 	push	{fp}		; (str fp, [sp, #-4]!)
c1083fbc:	e28db000 	add	fp, sp, #0
c1083fc0:	e24dd014 	sub	sp, sp, #20
c1083fc4:	e50b0010 	str	r0, [fp, #-16]
c1083fc8:	e50b1014 	str	r1, [fp, #-20]
c1083fcc:	e3a03000 	mov	r3, #0
c1083fd0:	e50b300c 	str	r3, [fp, #-12]
c1083fd4:	e51b2010 	ldr	r2, [fp, #-16]
c1083fd8:	e51b300c 	ldr	r3, [fp, #-12]
c1083fdc:	e0823003 	add	r3, r2, r3
c1083fe0:	e5d33000 	ldrb	r3, [r3]
c1083fe4:	e1a02003 	mov	r2, r3
c1083fe8:	e51b1014 	ldr	r1, [fp, #-20]
c1083fec:	e51b300c 	ldr	r3, [fp, #-12]
c1083ff0:	e0813003 	add	r3, r1, r3
c1083ff4:	e5d33000 	ldrb	r3, [r3]
c1083ff8:	e0633002 	rsb	r3, r3, r2
c1083ffc:	e50b3008 	str	r3, [fp, #-8]
c1084000:	e51b3008 	ldr	r3, [fp, #-8]
c1084004:	e3530000 	cmp	r3, #0
c1084008:	1a000005 	bne	c1084024 <strcmp+0x6c>
c108400c:	e51b2010 	ldr	r2, [fp, #-16]
c1084010:	e51b300c 	ldr	r3, [fp, #-12]
c1084014:	e0823003 	add	r3, r2, r3
c1084018:	e5d33000 	ldrb	r3, [r3]
c108401c:	e3530000 	cmp	r3, #0
c1084020:	1a000004 	bne	c1084038 <strcmp+0x80>
c1084024:	e51b3008 	ldr	r3, [fp, #-8]
c1084028:	e1a00003 	mov	r0, r3
c108402c:	e28bd000 	add	sp, fp, #0
c1084030:	e8bd0800 	pop	{fp}
c1084034:	e12fff1e 	bx	lr
c1084038:	e51b300c 	ldr	r3, [fp, #-12]
c108403c:	e2833001 	add	r3, r3, #1
c1084040:	e50b300c 	str	r3, [fp, #-12]
c1084044:	eaffffe2 	b	c1083fd4 <strcmp+0x1c>

c1084048 <strlen>:
c1084048:	e52db004 	push	{fp}		; (str fp, [sp, #-4]!)
c108404c:	e28db000 	add	fp, sp, #0
c1084050:	e24dd014 	sub	sp, sp, #20
c1084054:	e50b0010 	str	r0, [fp, #-16]
c1084058:	e51b3010 	ldr	r3, [fp, #-16]
c108405c:	e50b3008 	str	r3, [fp, #-8]
c1084060:	ea000002 	b	c1084070 <strlen+0x28>
c1084064:	e51b3008 	ldr	r3, [fp, #-8]
c1084068:	e2833001 	add	r3, r3, #1
c108406c:	e50b3008 	str	r3, [fp, #-8]
c1084070:	e51b3008 	ldr	r3, [fp, #-8]
c1084074:	e5d33000 	ldrb	r3, [r3]
c1084078:	e3530000 	cmp	r3, #0
c108407c:	1afffff8 	bne	c1084064 <strlen+0x1c>
c1084080:	e51b2008 	ldr	r2, [fp, #-8]
c1084084:	e51b3010 	ldr	r3, [fp, #-16]
c1084088:	e0633002 	rsb	r3, r3, r2
c108408c:	e1a00003 	mov	r0, r3
c1084090:	e28bd000 	add	sp, fp, #0
c1084094:	e8bd0800 	pop	{fp}
c1084098:	e12fff1e 	bx	lr

c108409c <strncmp>:
c108409c:	e52db004 	push	{fp}		; (str fp, [sp, #-4]!)
c10840a0:	e28db000 	add	fp, sp, #0
c10840a4:	e24dd01c 	sub	sp, sp, #28
c10840a8:	e50b0010 	str	r0, [fp, #-16]
c10840ac:	e50b1014 	str	r1, [fp, #-20]
c10840b0:	e50b2018 	str	r2, [fp, #-24]
c10840b4:	e3a03000 	mov	r3, #0
c10840b8:	e50b300c 	str	r3, [fp, #-12]
c10840bc:	ea000018 	b	c1084124 <strncmp+0x88>
c10840c0:	e51b2010 	ldr	r2, [fp, #-16]
c10840c4:	e51b300c 	ldr	r3, [fp, #-12]
c10840c8:	e0823003 	add	r3, r2, r3
c10840cc:	e5d33000 	ldrb	r3, [r3]
c10840d0:	e1a02003 	mov	r2, r3
c10840d4:	e51b1014 	ldr	r1, [fp, #-20]
c10840d8:	e51b300c 	ldr	r3, [fp, #-12]
c10840dc:	e0813003 	add	r3, r1, r3
c10840e0:	e5d33000 	ldrb	r3, [r3]
c10840e4:	e0633002 	rsb	r3, r3, r2
c10840e8:	e50b3008 	str	r3, [fp, #-8]
c10840ec:	e51b3008 	ldr	r3, [fp, #-8]
c10840f0:	e3530000 	cmp	r3, #0
c10840f4:	1a000005 	bne	c1084110 <strncmp+0x74>
c10840f8:	e51b2010 	ldr	r2, [fp, #-16]
c10840fc:	e51b300c 	ldr	r3, [fp, #-12]
c1084100:	e0823003 	add	r3, r2, r3
c1084104:	e5d33000 	ldrb	r3, [r3]
c1084108:	e3530000 	cmp	r3, #0
c108410c:	1a000001 	bne	c1084118 <strncmp+0x7c>
c1084110:	e51b3008 	ldr	r3, [fp, #-8]
c1084114:	ea000007 	b	c1084138 <strncmp+0x9c>
c1084118:	e51b300c 	ldr	r3, [fp, #-12]
c108411c:	e2833001 	add	r3, r3, #1
c1084120:	e50b300c 	str	r3, [fp, #-12]
c1084124:	e51b200c 	ldr	r2, [fp, #-12]
c1084128:	e51b3018 	ldr	r3, [fp, #-24]
c108412c:	e1520003 	cmp	r2, r3
c1084130:	3affffe2 	bcc	c10840c0 <strncmp+0x24>
c1084134:	e3a03000 	mov	r3, #0
c1084138:	e1a00003 	mov	r0, r3
c108413c:	e28bd000 	add	sp, fp, #0
c1084140:	e8bd0800 	pop	{fp}
c1084144:	e12fff1e 	bx	lr

c1084148 <vfprintf>:
c1084148:	e92d4800 	push	{fp, lr}
c108414c:	e28db004 	add	fp, sp, #4
c1084150:	e24dd018 	sub	sp, sp, #24
c1084154:	e50b0008 	str	r0, [fp, #-8]
c1084158:	e50b100c 	str	r1, [fp, #-12]
c108415c:	e50b2010 	str	r2, [fp, #-16]
c1084160:	e51b300c 	ldr	r3, [fp, #-12]
c1084164:	e58d3000 	str	r3, [sp]
c1084168:	e51b3010 	ldr	r3, [fp, #-16]
c108416c:	e58d3004 	str	r3, [sp, #4]
c1084170:	e3a00000 	mov	r0, #0
c1084174:	e51b1008 	ldr	r1, [fp, #-8]
c1084178:	e3a02001 	mov	r2, #1
c108417c:	e3e03000 	mvn	r3, #0
c1084180:	eb00018f 	bl	c10847c4 <format_string>
c1084184:	e1a03000 	mov	r3, r0
c1084188:	e1a00003 	mov	r0, r3
c108418c:	e24bd004 	sub	sp, fp, #4
c1084190:	e8bd8800 	pop	{fp, pc}

c1084194 <ser_out>:
c1084194:	e92d4800 	push	{fp, lr}
c1084198:	e28db004 	add	fp, sp, #4
c108419c:	e24dd008 	sub	sp, sp, #8
c10841a0:	e50b0008 	str	r0, [fp, #-8]
c10841a4:	e51b0008 	ldr	r0, [fp, #-8]
c10841a8:	e3a01000 	mov	r1, #0
c10841ac:	eb0004b5 	bl	c1085488 <__fputc>
c10841b0:	e51b3008 	ldr	r3, [fp, #-8]
c10841b4:	e353000a 	cmp	r3, #10
c10841b8:	1a000001 	bne	c10841c4 <ser_out+0x30>
c10841bc:	e3a0000d 	mov	r0, #13
c10841c0:	ebfffff3 	bl	c1084194 <ser_out>
c10841c4:	e3a03000 	mov	r3, #0
c10841c8:	e1a00003 	mov	r0, r3
c10841cc:	e24bd004 	sub	sp, fp, #4
c10841d0:	e8bd8800 	pop	{fp, pc}

c10841d4 <l4kdb_write>:
c10841d4:	e92d4800 	push	{fp, lr}
c10841d8:	e28db004 	add	fp, sp, #4
c10841dc:	e24dd018 	sub	sp, sp, #24
c10841e0:	e50b0010 	str	r0, [fp, #-16]
c10841e4:	e50b1014 	str	r1, [fp, #-20]
c10841e8:	e50b2018 	str	r2, [fp, #-24]
c10841ec:	e50b301c 	str	r3, [fp, #-28]
c10841f0:	e51b3010 	ldr	r3, [fp, #-16]
c10841f4:	e50b3008 	str	r3, [fp, #-8]
c10841f8:	e3a03000 	mov	r3, #0
c10841fc:	e50b300c 	str	r3, [fp, #-12]
c1084200:	ea000008 	b	c1084228 <l4kdb_write+0x54>
c1084204:	e51b2008 	ldr	r2, [fp, #-8]
c1084208:	e51b300c 	ldr	r3, [fp, #-12]
c108420c:	e0823003 	add	r3, r2, r3
c1084210:	e5d33000 	ldrb	r3, [r3]
c1084214:	e1a00003 	mov	r0, r3
c1084218:	ebffffdd 	bl	c1084194 <ser_out>
c108421c:	e51b300c 	ldr	r3, [fp, #-12]
c1084220:	e2833001 	add	r3, r3, #1
c1084224:	e50b300c 	str	r3, [fp, #-12]
c1084228:	e51b200c 	ldr	r2, [fp, #-12]
c108422c:	e51b3018 	ldr	r3, [fp, #-24]
c1084230:	e1520003 	cmp	r2, r3
c1084234:	3afffff2 	bcc	c1084204 <l4kdb_write+0x30>
c1084238:	e51b3018 	ldr	r3, [fp, #-24]
c108423c:	e1a00003 	mov	r0, r3
c1084240:	e24bd004 	sub	sp, fp, #4
c1084244:	e8bd8800 	pop	{fp, pc}

c1084248 <umaxtostr>:
c1084248:	e92d4810 	push	{r4, fp, lr}
c108424c:	e28db008 	add	fp, sp, #8
c1084250:	e24dd01c 	sub	sp, sp, #28
c1084254:	e50b0018 	str	r0, [fp, #-24]
c1084258:	e50b2024 	str	r2, [fp, #-36]	; 0x24
c108425c:	e50b3020 	str	r3, [fp, #-32]
c1084260:	ea00001e 	b	c10842e0 <umaxtostr+0x98>
c1084264:	e51b3018 	ldr	r3, [fp, #-24]
c1084268:	e2433001 	sub	r3, r3, #1
c108426c:	e50b3018 	str	r3, [fp, #-24]
c1084270:	e59b3004 	ldr	r3, [fp, #4]
c1084274:	e1a04fc3 	asr	r4, r3, #31
c1084278:	e24b2024 	sub	r2, fp, #36	; 0x24
c108427c:	e8920006 	ldm	r2, {r1, r2}
c1084280:	e1a00001 	mov	r0, r1
c1084284:	e1a01002 	mov	r1, r2
c1084288:	e1a02003 	mov	r2, r3
c108428c:	e1a03004 	mov	r3, r4
c1084290:	eb0004d3 	bl	c10855e4 <__aeabi_uldivmod>
c1084294:	e1a04003 	mov	r4, r3
c1084298:	e1a03002 	mov	r3, r2
c108429c:	e1a02003 	mov	r2, r3
c10842a0:	e59b3008 	ldr	r3, [fp, #8]
c10842a4:	e0823003 	add	r3, r2, r3
c10842a8:	e5d32000 	ldrb	r2, [r3]
c10842ac:	e51b3018 	ldr	r3, [fp, #-24]
c10842b0:	e5c32000 	strb	r2, [r3]
c10842b4:	e59b3004 	ldr	r3, [fp, #4]
c10842b8:	e1a04fc3 	asr	r4, r3, #31
c10842bc:	e24b1024 	sub	r1, fp, #36	; 0x24
c10842c0:	e8910003 	ldm	r1, {r0, r1}
c10842c4:	e1a02003 	mov	r2, r3
c10842c8:	e1a03004 	mov	r3, r4
c10842cc:	eb0004c4 	bl	c10855e4 <__aeabi_uldivmod>
c10842d0:	e1a03000 	mov	r3, r0
c10842d4:	e1a04001 	mov	r4, r1
c10842d8:	e50b3024 	str	r3, [fp, #-36]	; 0x24
c10842dc:	e50b4020 	str	r4, [fp, #-32]
c10842e0:	e51b3020 	ldr	r3, [fp, #-32]
c10842e4:	e3530000 	cmp	r3, #0
c10842e8:	1affffdd 	bne	c1084264 <umaxtostr+0x1c>
c10842ec:	e51b3020 	ldr	r3, [fp, #-32]
c10842f0:	e3530000 	cmp	r3, #0
c10842f4:	1a000001 	bne	c1084300 <umaxtostr+0xb8>
c10842f8:	e51b3024 	ldr	r3, [fp, #-36]	; 0x24
c10842fc:	e3730001 	cmn	r3, #1
c1084300:	e51b3024 	ldr	r3, [fp, #-36]	; 0x24
c1084304:	e50b3010 	str	r3, [fp, #-16]
c1084308:	ea000014 	b	c1084360 <umaxtostr+0x118>
c108430c:	e51b3018 	ldr	r3, [fp, #-24]
c1084310:	e2433001 	sub	r3, r3, #1
c1084314:	e50b3018 	str	r3, [fp, #-24]
c1084318:	e59b3004 	ldr	r3, [fp, #4]
c108431c:	e51b2010 	ldr	r2, [fp, #-16]
c1084320:	e1a00002 	mov	r0, r2
c1084324:	e1a01003 	mov	r1, r3
c1084328:	eb0004a4 	bl	c10855c0 <__aeabi_uidivmod>
c108432c:	e1a03001 	mov	r3, r1
c1084330:	e1a02003 	mov	r2, r3
c1084334:	e59b3008 	ldr	r3, [fp, #8]
c1084338:	e0823003 	add	r3, r2, r3
c108433c:	e5d32000 	ldrb	r2, [r3]
c1084340:	e51b3018 	ldr	r3, [fp, #-24]
c1084344:	e5c32000 	strb	r2, [r3]
c1084348:	e59b3004 	ldr	r3, [fp, #4]
c108434c:	e51b0010 	ldr	r0, [fp, #-16]
c1084350:	e1a01003 	mov	r1, r3
c1084354:	eb00045c 	bl	c10854cc <__aeabi_uidiv>
c1084358:	e1a03000 	mov	r3, r0
c108435c:	e50b3010 	str	r3, [fp, #-16]
c1084360:	e51b3010 	ldr	r3, [fp, #-16]
c1084364:	e3530000 	cmp	r3, #0
c1084368:	1affffe7 	bne	c108430c <umaxtostr+0xc4>
c108436c:	e51b3018 	ldr	r3, [fp, #-24]
c1084370:	e1a00003 	mov	r0, r3
c1084374:	e24bd008 	sub	sp, fp, #8
c1084378:	e8bd8810 	pop	{r4, fp, pc}

c108437c <fprintf1>:
c108437c:	e92d4800 	push	{fp, lr}
c1084380:	e28db004 	add	fp, sp, #4
c1084384:	e24dd020 	sub	sp, sp, #32
c1084388:	e50b0018 	str	r0, [fp, #-24]
c108438c:	e50b101c 	str	r1, [fp, #-28]
c1084390:	e50b3024 	str	r3, [fp, #-36]	; 0x24
c1084394:	e1a03002 	mov	r3, r2
c1084398:	e54b301d 	strb	r3, [fp, #-29]
c108439c:	e51b3024 	ldr	r3, [fp, #-36]	; 0x24
c10843a0:	e50b300c 	str	r3, [fp, #-12]
c10843a4:	e59b3020 	ldr	r3, [fp, #32]
c10843a8:	e5d33000 	ldrb	r3, [r3]
c10843ac:	e54b3005 	strb	r3, [fp, #-5]
c10843b0:	e59b2018 	ldr	r2, [fp, #24]
c10843b4:	e59b301c 	ldr	r3, [fp, #28]
c10843b8:	e0632002 	rsb	r2, r3, r2
c10843bc:	e59b3014 	ldr	r3, [fp, #20]
c10843c0:	e0633002 	rsb	r3, r3, r2
c10843c4:	e3530000 	cmp	r3, #0
c10843c8:	da00005d 	ble	c1084544 <fprintf1+0x1c8>
c10843cc:	e3a03000 	mov	r3, #0
c10843d0:	e50b3010 	str	r3, [fp, #-16]
c10843d4:	ea000026 	b	c1084474 <fprintf1+0xf8>
c10843d8:	e59b3004 	ldr	r3, [fp, #4]
c10843dc:	e3730001 	cmn	r3, #1
c10843e0:	0a00000b 	beq	c1084414 <fprintf1+0x98>
c10843e4:	e51b2024 	ldr	r2, [fp, #-36]	; 0x24
c10843e8:	e59b3004 	ldr	r3, [fp, #4]
c10843ec:	e1520003 	cmp	r2, r3
c10843f0:	1a000007 	bne	c1084414 <fprintf1+0x98>
c10843f4:	e51b3018 	ldr	r3, [fp, #-24]
c10843f8:	e3a02000 	mov	r2, #0
c10843fc:	e5c32000 	strb	r2, [r3]
c1084400:	e51b3018 	ldr	r3, [fp, #-24]
c1084404:	e2833001 	add	r3, r3, #1
c1084408:	e50b3018 	str	r3, [fp, #-24]
c108440c:	e3a03001 	mov	r3, #1
c1084410:	e54b3005 	strb	r3, [fp, #-5]
c1084414:	e55b301d 	ldrb	r3, [fp, #-29]
c1084418:	e3530000 	cmp	r3, #0
c108441c:	0a000003 	beq	c1084430 <fprintf1+0xb4>
c1084420:	e3a00020 	mov	r0, #32
c1084424:	e51b101c 	ldr	r1, [fp, #-28]
c1084428:	eb0003f5 	bl	c1085404 <fputc>
c108442c:	ea00000a 	b	c108445c <fprintf1+0xe0>
c1084430:	e55b3005 	ldrb	r3, [fp, #-5]
c1084434:	e2233001 	eor	r3, r3, #1
c1084438:	e20330ff 	and	r3, r3, #255	; 0xff
c108443c:	e3530000 	cmp	r3, #0
c1084440:	0a000005 	beq	c108445c <fprintf1+0xe0>
c1084444:	e51b3018 	ldr	r3, [fp, #-24]
c1084448:	e3a02020 	mov	r2, #32
c108444c:	e5c32000 	strb	r2, [r3]
c1084450:	e51b3018 	ldr	r3, [fp, #-24]
c1084454:	e2833001 	add	r3, r3, #1
c1084458:	e50b3018 	str	r3, [fp, #-24]
c108445c:	e51b3024 	ldr	r3, [fp, #-36]	; 0x24
c1084460:	e2833001 	add	r3, r3, #1
c1084464:	e50b3024 	str	r3, [fp, #-36]	; 0x24
c1084468:	e51b3010 	ldr	r3, [fp, #-16]
c108446c:	e2833001 	add	r3, r3, #1
c1084470:	e50b3010 	str	r3, [fp, #-16]
c1084474:	e59b2018 	ldr	r2, [fp, #24]
c1084478:	e59b301c 	ldr	r3, [fp, #28]
c108447c:	e0632002 	rsb	r2, r3, r2
c1084480:	e59b3014 	ldr	r3, [fp, #20]
c1084484:	e0633002 	rsb	r3, r3, r2
c1084488:	e1a02003 	mov	r2, r3
c108448c:	e51b3010 	ldr	r3, [fp, #-16]
c1084490:	e1520003 	cmp	r2, r3
c1084494:	8affffcf 	bhi	c10843d8 <fprintf1+0x5c>
c1084498:	ea000029 	b	c1084544 <fprintf1+0x1c8>
c108449c:	e59b3004 	ldr	r3, [fp, #4]
c10844a0:	e3730001 	cmn	r3, #1
c10844a4:	0a00000b 	beq	c10844d8 <fprintf1+0x15c>
c10844a8:	e51b2024 	ldr	r2, [fp, #-36]	; 0x24
c10844ac:	e59b3004 	ldr	r3, [fp, #4]
c10844b0:	e1520003 	cmp	r2, r3
c10844b4:	1a000007 	bne	c10844d8 <fprintf1+0x15c>
c10844b8:	e51b3018 	ldr	r3, [fp, #-24]
c10844bc:	e3a02000 	mov	r2, #0
c10844c0:	e5c32000 	strb	r2, [r3]
c10844c4:	e51b3018 	ldr	r3, [fp, #-24]
c10844c8:	e2833001 	add	r3, r3, #1
c10844cc:	e50b3018 	str	r3, [fp, #-24]
c10844d0:	e3a03001 	mov	r3, #1
c10844d4:	e54b3005 	strb	r3, [fp, #-5]
c10844d8:	e55b301d 	ldrb	r3, [fp, #-29]
c10844dc:	e3530000 	cmp	r3, #0
c10844e0:	0a000005 	beq	c10844fc <fprintf1+0x180>
c10844e4:	e59b3010 	ldr	r3, [fp, #16]
c10844e8:	e20330ff 	and	r3, r3, #255	; 0xff
c10844ec:	e1a00003 	mov	r0, r3
c10844f0:	e51b101c 	ldr	r1, [fp, #-28]
c10844f4:	eb0003c2 	bl	c1085404 <fputc>
c10844f8:	ea00000b 	b	c108452c <fprintf1+0x1b0>
c10844fc:	e55b3005 	ldrb	r3, [fp, #-5]
c1084500:	e2233001 	eor	r3, r3, #1
c1084504:	e20330ff 	and	r3, r3, #255	; 0xff
c1084508:	e3530000 	cmp	r3, #0
c108450c:	0a000006 	beq	c108452c <fprintf1+0x1b0>
c1084510:	e59b3010 	ldr	r3, [fp, #16]
c1084514:	e20320ff 	and	r2, r3, #255	; 0xff
c1084518:	e51b3018 	ldr	r3, [fp, #-24]
c108451c:	e5c32000 	strb	r2, [r3]
c1084520:	e51b3018 	ldr	r3, [fp, #-24]
c1084524:	e2833001 	add	r3, r3, #1
c1084528:	e50b3018 	str	r3, [fp, #-24]
c108452c:	e51b3024 	ldr	r3, [fp, #-36]	; 0x24
c1084530:	e2833001 	add	r3, r3, #1
c1084534:	e50b3024 	str	r3, [fp, #-36]	; 0x24
c1084538:	e59b3010 	ldr	r3, [fp, #16]
c108453c:	e1a03423 	lsr	r3, r3, #8
c1084540:	e58b3010 	str	r3, [fp, #16]
c1084544:	e59b3010 	ldr	r3, [fp, #16]
c1084548:	e3530000 	cmp	r3, #0
c108454c:	1affffd2 	bne	c108449c <fprintf1+0x120>
c1084550:	e3a03000 	mov	r3, #0
c1084554:	e50b3010 	str	r3, [fp, #-16]
c1084558:	ea000026 	b	c10845f8 <fprintf1+0x27c>
c108455c:	e59b3004 	ldr	r3, [fp, #4]
c1084560:	e3730001 	cmn	r3, #1
c1084564:	0a00000b 	beq	c1084598 <fprintf1+0x21c>
c1084568:	e51b2024 	ldr	r2, [fp, #-36]	; 0x24
c108456c:	e59b3004 	ldr	r3, [fp, #4]
c1084570:	e1520003 	cmp	r2, r3
c1084574:	1a000007 	bne	c1084598 <fprintf1+0x21c>
c1084578:	e51b3018 	ldr	r3, [fp, #-24]
c108457c:	e3a02000 	mov	r2, #0
c1084580:	e5c32000 	strb	r2, [r3]
c1084584:	e51b3018 	ldr	r3, [fp, #-24]
c1084588:	e2833001 	add	r3, r3, #1
c108458c:	e50b3018 	str	r3, [fp, #-24]
c1084590:	e3a03001 	mov	r3, #1
c1084594:	e54b3005 	strb	r3, [fp, #-5]
c1084598:	e55b301d 	ldrb	r3, [fp, #-29]
c108459c:	e3530000 	cmp	r3, #0
c10845a0:	0a000003 	beq	c10845b4 <fprintf1+0x238>
c10845a4:	e3a00030 	mov	r0, #48	; 0x30
c10845a8:	e51b101c 	ldr	r1, [fp, #-28]
c10845ac:	eb000394 	bl	c1085404 <fputc>
c10845b0:	ea00000a 	b	c10845e0 <fprintf1+0x264>
c10845b4:	e55b3005 	ldrb	r3, [fp, #-5]
c10845b8:	e2233001 	eor	r3, r3, #1
c10845bc:	e20330ff 	and	r3, r3, #255	; 0xff
c10845c0:	e3530000 	cmp	r3, #0
c10845c4:	0a000005 	beq	c10845e0 <fprintf1+0x264>
c10845c8:	e51b3018 	ldr	r3, [fp, #-24]
c10845cc:	e3a02030 	mov	r2, #48	; 0x30
c10845d0:	e5c32000 	strb	r2, [r3]
c10845d4:	e51b3018 	ldr	r3, [fp, #-24]
c10845d8:	e2833001 	add	r3, r3, #1
c10845dc:	e50b3018 	str	r3, [fp, #-24]
c10845e0:	e51b3024 	ldr	r3, [fp, #-36]	; 0x24
c10845e4:	e2833001 	add	r3, r3, #1
c10845e8:	e50b3024 	str	r3, [fp, #-36]	; 0x24
c10845ec:	e51b3010 	ldr	r3, [fp, #-16]
c10845f0:	e2833001 	add	r3, r3, #1
c10845f4:	e50b3010 	str	r3, [fp, #-16]
c10845f8:	e59b201c 	ldr	r2, [fp, #28]
c10845fc:	e59b300c 	ldr	r3, [fp, #12]
c1084600:	e0633002 	rsb	r3, r3, r2
c1084604:	e1a02003 	mov	r2, r3
c1084608:	e51b3010 	ldr	r3, [fp, #-16]
c108460c:	e1520003 	cmp	r2, r3
c1084610:	8affffd1 	bhi	c108455c <fprintf1+0x1e0>
c1084614:	e3a03000 	mov	r3, #0
c1084618:	e50b3010 	str	r3, [fp, #-16]
c108461c:	ea00002d 	b	c10846d8 <fprintf1+0x35c>
c1084620:	e59b3004 	ldr	r3, [fp, #4]
c1084624:	e3730001 	cmn	r3, #1
c1084628:	0a00000b 	beq	c108465c <fprintf1+0x2e0>
c108462c:	e51b2024 	ldr	r2, [fp, #-36]	; 0x24
c1084630:	e59b3004 	ldr	r3, [fp, #4]
c1084634:	e1520003 	cmp	r2, r3
c1084638:	1a000007 	bne	c108465c <fprintf1+0x2e0>
c108463c:	e51b3018 	ldr	r3, [fp, #-24]
c1084640:	e3a02000 	mov	r2, #0
c1084644:	e5c32000 	strb	r2, [r3]
c1084648:	e51b3018 	ldr	r3, [fp, #-24]
c108464c:	e2833001 	add	r3, r3, #1
c1084650:	e50b3018 	str	r3, [fp, #-24]
c1084654:	e3a03001 	mov	r3, #1
c1084658:	e54b3005 	strb	r3, [fp, #-5]
c108465c:	e55b301d 	ldrb	r3, [fp, #-29]
c1084660:	e3530000 	cmp	r3, #0
c1084664:	0a000007 	beq	c1084688 <fprintf1+0x30c>
c1084668:	e59b2008 	ldr	r2, [fp, #8]
c108466c:	e51b3010 	ldr	r3, [fp, #-16]
c1084670:	e0823003 	add	r3, r2, r3
c1084674:	e5d33000 	ldrb	r3, [r3]
c1084678:	e1a00003 	mov	r0, r3
c108467c:	e51b101c 	ldr	r1, [fp, #-28]
c1084680:	eb00035f 	bl	c1085404 <fputc>
c1084684:	ea00000d 	b	c10846c0 <fprintf1+0x344>
c1084688:	e55b3005 	ldrb	r3, [fp, #-5]
c108468c:	e2233001 	eor	r3, r3, #1
c1084690:	e20330ff 	and	r3, r3, #255	; 0xff
c1084694:	e3530000 	cmp	r3, #0
c1084698:	0a000008 	beq	c10846c0 <fprintf1+0x344>
c108469c:	e59b2008 	ldr	r2, [fp, #8]
c10846a0:	e51b3010 	ldr	r3, [fp, #-16]
c10846a4:	e0823003 	add	r3, r2, r3
c10846a8:	e5d32000 	ldrb	r2, [r3]
c10846ac:	e51b3018 	ldr	r3, [fp, #-24]
c10846b0:	e5c32000 	strb	r2, [r3]
c10846b4:	e51b3018 	ldr	r3, [fp, #-24]
c10846b8:	e2833001 	add	r3, r3, #1
c10846bc:	e50b3018 	str	r3, [fp, #-24]
c10846c0:	e51b3024 	ldr	r3, [fp, #-36]	; 0x24
c10846c4:	e2833001 	add	r3, r3, #1
c10846c8:	e50b3024 	str	r3, [fp, #-36]	; 0x24
c10846cc:	e51b3010 	ldr	r3, [fp, #-16]
c10846d0:	e2833001 	add	r3, r3, #1
c10846d4:	e50b3010 	str	r3, [fp, #-16]
c10846d8:	e59b200c 	ldr	r2, [fp, #12]
c10846dc:	e51b3010 	ldr	r3, [fp, #-16]
c10846e0:	e1520003 	cmp	r2, r3
c10846e4:	8affffcd 	bhi	c1084620 <fprintf1+0x2a4>
c10846e8:	e59b3018 	ldr	r3, [fp, #24]
c10846ec:	e3530000 	cmp	r3, #0
c10846f0:	aa00002a 	bge	c10847a0 <fprintf1+0x424>
c10846f4:	ea000023 	b	c1084788 <fprintf1+0x40c>
c10846f8:	e59b3004 	ldr	r3, [fp, #4]
c10846fc:	e3730001 	cmn	r3, #1
c1084700:	0a00000b 	beq	c1084734 <fprintf1+0x3b8>
c1084704:	e51b2024 	ldr	r2, [fp, #-36]	; 0x24
c1084708:	e59b3004 	ldr	r3, [fp, #4]
c108470c:	e1520003 	cmp	r2, r3
c1084710:	1a000007 	bne	c1084734 <fprintf1+0x3b8>
c1084714:	e51b3018 	ldr	r3, [fp, #-24]
c1084718:	e3a02000 	mov	r2, #0
c108471c:	e5c32000 	strb	r2, [r3]
c1084720:	e51b3018 	ldr	r3, [fp, #-24]
c1084724:	e2833001 	add	r3, r3, #1
c1084728:	e50b3018 	str	r3, [fp, #-24]
c108472c:	e3a03001 	mov	r3, #1
c1084730:	e54b3005 	strb	r3, [fp, #-5]
c1084734:	e55b301d 	ldrb	r3, [fp, #-29]
c1084738:	e3530000 	cmp	r3, #0
c108473c:	0a000003 	beq	c1084750 <fprintf1+0x3d4>
c1084740:	e3a00020 	mov	r0, #32
c1084744:	e51b101c 	ldr	r1, [fp, #-28]
c1084748:	eb00032d 	bl	c1085404 <fputc>
c108474c:	ea00000a 	b	c108477c <fprintf1+0x400>
c1084750:	e55b3005 	ldrb	r3, [fp, #-5]
c1084754:	e2233001 	eor	r3, r3, #1
c1084758:	e20330ff 	and	r3, r3, #255	; 0xff
c108475c:	e3530000 	cmp	r3, #0
c1084760:	0a000005 	beq	c108477c <fprintf1+0x400>
c1084764:	e51b3018 	ldr	r3, [fp, #-24]
c1084768:	e3a02020 	mov	r2, #32
c108476c:	e5c32000 	strb	r2, [r3]
c1084770:	e51b3018 	ldr	r3, [fp, #-24]
c1084774:	e2833001 	add	r3, r3, #1
c1084778:	e50b3018 	str	r3, [fp, #-24]
c108477c:	e51b3024 	ldr	r3, [fp, #-36]	; 0x24
c1084780:	e2833001 	add	r3, r3, #1
c1084784:	e50b3024 	str	r3, [fp, #-36]	; 0x24
c1084788:	e59b3018 	ldr	r3, [fp, #24]
c108478c:	e2633000 	rsb	r3, r3, #0
c1084790:	e1a02003 	mov	r2, r3
c1084794:	e51b300c 	ldr	r3, [fp, #-12]
c1084798:	e1520003 	cmp	r2, r3
c108479c:	8affffd5 	bhi	c10846f8 <fprintf1+0x37c>
c10847a0:	e59b3020 	ldr	r3, [fp, #32]
c10847a4:	e55b2005 	ldrb	r2, [fp, #-5]
c10847a8:	e5c32000 	strb	r2, [r3]
c10847ac:	e51b2024 	ldr	r2, [fp, #-36]	; 0x24
c10847b0:	e51b300c 	ldr	r3, [fp, #-12]
c10847b4:	e0633002 	rsb	r3, r3, r2
c10847b8:	e1a00003 	mov	r0, r3
c10847bc:	e24bd004 	sub	sp, fp, #4
c10847c0:	e8bd8800 	pop	{fp, pc}

c10847c4 <format_string>:
c10847c4:	e92d4810 	push	{r4, fp, lr}
c10847c8:	e28db008 	add	fp, sp, #8
c10847cc:	e24dd09c 	sub	sp, sp, #156	; 0x9c
c10847d0:	e50b0078 	str	r0, [fp, #-120]	; 0x78
c10847d4:	e50b107c 	str	r1, [fp, #-124]	; 0x7c
c10847d8:	e50b3084 	str	r3, [fp, #-132]	; 0x84
c10847dc:	e1a03002 	mov	r3, r2
c10847e0:	e54b307d 	strb	r3, [fp, #-125]	; 0x7d
c10847e4:	e3a03000 	mov	r3, #0
c10847e8:	e54b3059 	strb	r3, [fp, #-89]	; 0x59
c10847ec:	e3a03000 	mov	r3, #0
c10847f0:	e50b3044 	str	r3, [fp, #-68]	; 0x44
c10847f4:	e24b3074 	sub	r3, fp, #116	; 0x74
c10847f8:	e2833018 	add	r3, r3, #24
c10847fc:	e50b3028 	str	r3, [fp, #-40]	; 0x28
c1084800:	e3a03000 	mov	r3, #0
c1084804:	e3a04000 	mov	r4, #0
c1084808:	e50b301c 	str	r3, [fp, #-28]
c108480c:	e50b4018 	str	r4, [fp, #-24]
c1084810:	e3a03000 	mov	r3, #0
c1084814:	e50b303c 	str	r3, [fp, #-60]	; 0x3c
c1084818:	e59b3004 	ldr	r3, [fp, #4]
c108481c:	e50b3034 	str	r3, [fp, #-52]	; 0x34
c1084820:	ea0002db 	b	c1085394 <format_string+0xbd0>
c1084824:	e51b3034 	ldr	r3, [fp, #-52]	; 0x34
c1084828:	e5d33000 	ldrb	r3, [r3]
c108482c:	e3530025 	cmp	r3, #37	; 0x25
c1084830:	0a000029 	beq	c10848dc <format_string+0x118>
c1084834:	ea000000 	b	c108483c <format_string+0x78>
c1084838:	e1a00000 	nop			; (mov r0, r0)
c108483c:	e51b3084 	ldr	r3, [fp, #-132]	; 0x84
c1084840:	e3730001 	cmn	r3, #1
c1084844:	0a00000b 	beq	c1084878 <format_string+0xb4>
c1084848:	e51b203c 	ldr	r2, [fp, #-60]	; 0x3c
c108484c:	e51b3084 	ldr	r3, [fp, #-132]	; 0x84
c1084850:	e1520003 	cmp	r2, r3
c1084854:	1a000007 	bne	c1084878 <format_string+0xb4>
c1084858:	e51b3078 	ldr	r3, [fp, #-120]	; 0x78
c108485c:	e3a02000 	mov	r2, #0
c1084860:	e5c32000 	strb	r2, [r3]
c1084864:	e51b3078 	ldr	r3, [fp, #-120]	; 0x78
c1084868:	e2833001 	add	r3, r3, #1
c108486c:	e50b3078 	str	r3, [fp, #-120]	; 0x78
c1084870:	e3a03001 	mov	r3, #1
c1084874:	e54b3059 	strb	r3, [fp, #-89]	; 0x59
c1084878:	e55b307d 	ldrb	r3, [fp, #-125]	; 0x7d
c108487c:	e3530000 	cmp	r3, #0
c1084880:	0a000005 	beq	c108489c <format_string+0xd8>
c1084884:	e51b3034 	ldr	r3, [fp, #-52]	; 0x34
c1084888:	e5d33000 	ldrb	r3, [r3]
c108488c:	e1a00003 	mov	r0, r3
c1084890:	e51b107c 	ldr	r1, [fp, #-124]	; 0x7c
c1084894:	eb0002da 	bl	c1085404 <fputc>
c1084898:	ea00000b 	b	c10848cc <format_string+0x108>
c108489c:	e55b3059 	ldrb	r3, [fp, #-89]	; 0x59
c10848a0:	e2233001 	eor	r3, r3, #1
c10848a4:	e20330ff 	and	r3, r3, #255	; 0xff
c10848a8:	e3530000 	cmp	r3, #0
c10848ac:	0a000006 	beq	c10848cc <format_string+0x108>
c10848b0:	e51b3034 	ldr	r3, [fp, #-52]	; 0x34
c10848b4:	e5d32000 	ldrb	r2, [r3]
c10848b8:	e51b3078 	ldr	r3, [fp, #-120]	; 0x78
c10848bc:	e5c32000 	strb	r2, [r3]
c10848c0:	e51b3078 	ldr	r3, [fp, #-120]	; 0x78
c10848c4:	e2833001 	add	r3, r3, #1
c10848c8:	e50b3078 	str	r3, [fp, #-120]	; 0x78
c10848cc:	e51b303c 	ldr	r3, [fp, #-60]	; 0x3c
c10848d0:	e2833001 	add	r3, r3, #1
c10848d4:	e50b303c 	str	r3, [fp, #-60]	; 0x3c
c10848d8:	ea0002aa 	b	c1085388 <format_string+0xbc4>
c10848dc:	e3a03000 	mov	r3, #0
c10848e0:	e54b3058 	strb	r3, [fp, #-88]	; 0x58
c10848e4:	e3a03000 	mov	r3, #0
c10848e8:	e54b3057 	strb	r3, [fp, #-87]	; 0x57
c10848ec:	e3a03000 	mov	r3, #0
c10848f0:	e54b3056 	strb	r3, [fp, #-86]	; 0x56
c10848f4:	e3a03000 	mov	r3, #0
c10848f8:	e54b3055 	strb	r3, [fp, #-85]	; 0x55
c10848fc:	e3a03000 	mov	r3, #0
c1084900:	e50b3054 	str	r3, [fp, #-84]	; 0x54
c1084904:	e3a03000 	mov	r3, #0
c1084908:	e50b3050 	str	r3, [fp, #-80]	; 0x50
c108490c:	e3a03000 	mov	r3, #0
c1084910:	e50b3040 	str	r3, [fp, #-64]	; 0x40
c1084914:	e3a03000 	mov	r3, #0
c1084918:	e50b304c 	str	r3, [fp, #-76]	; 0x4c
c108491c:	e3a03001 	mov	r3, #1
c1084920:	e50b3048 	str	r3, [fp, #-72]	; 0x48
c1084924:	e59f3ac8 	ldr	r3, [pc, #2760]	; c10853f4 <format_string+0xc30>
c1084928:	e50b302c 	str	r3, [fp, #-44]	; 0x2c
c108492c:	e51b3034 	ldr	r3, [fp, #-52]	; 0x34
c1084930:	e2833001 	add	r3, r3, #1
c1084934:	e50b3034 	str	r3, [fp, #-52]	; 0x34
c1084938:	ea000000 	b	c1084940 <format_string+0x17c>
c108493c:	e1a00000 	nop			; (mov r0, r0)
c1084940:	e51b3034 	ldr	r3, [fp, #-52]	; 0x34
c1084944:	e5d33000 	ldrb	r3, [r3]
c1084948:	e2433020 	sub	r3, r3, #32
c108494c:	e353005a 	cmp	r3, #90	; 0x5a
c1084950:	979ff103 	ldrls	pc, [pc, r3, lsl #2]
c1084954:	ea00024a 	b	c1085284 <format_string+0xac0>
c1084958:	c1084ae8 	.word	0xc1084ae8
c108495c:	c1085284 	.word	0xc1085284
c1084960:	c1085284 	.word	0xc1085284
c1084964:	c1084ac4 	.word	0xc1084ac4
c1084968:	c1085284 	.word	0xc1085284
c108496c:	c1084838 	.word	0xc1084838
c1084970:	c1085284 	.word	0xc1085284
c1084974:	c1085284 	.word	0xc1085284
c1084978:	c1085284 	.word	0xc1085284
c108497c:	c1085284 	.word	0xc1085284
c1084980:	c1084b00 	.word	0xc1084b00
c1084984:	c1084ae8 	.word	0xc1084ae8
c1084988:	c1085284 	.word	0xc1085284
c108498c:	c1084ad0 	.word	0xc1084ad0
c1084990:	c1084bb8 	.word	0xc1084bb8
c1084994:	c1085284 	.word	0xc1085284
c1084998:	c1084adc 	.word	0xc1084adc
c108499c:	c1084b30 	.word	0xc1084b30
c10849a0:	c1084b30 	.word	0xc1084b30
c10849a4:	c1084b30 	.word	0xc1084b30
c10849a8:	c1084b30 	.word	0xc1084b30
c10849ac:	c1084b30 	.word	0xc1084b30
c10849b0:	c1084b30 	.word	0xc1084b30
c10849b4:	c1084b30 	.word	0xc1084b30
c10849b8:	c1084b30 	.word	0xc1084b30
c10849bc:	c1084b30 	.word	0xc1084b30
c10849c0:	c1085284 	.word	0xc1085284
c10849c4:	c1085284 	.word	0xc1085284
c10849c8:	c1085284 	.word	0xc1085284
c10849cc:	c1085284 	.word	0xc1085284
c10849d0:	c1085284 	.word	0xc1085284
c10849d4:	c1085284 	.word	0xc1085284
c10849d8:	c1085284 	.word	0xc1085284
c10849dc:	c1084c88 	.word	0xc1084c88
c10849e0:	c1085284 	.word	0xc1085284
c10849e4:	c1085284 	.word	0xc1085284
c10849e8:	c1085284 	.word	0xc1085284
c10849ec:	c1084c88 	.word	0xc1084c88
c10849f0:	c1085284 	.word	0xc1085284
c10849f4:	c1084c88 	.word	0xc1084c88
c10849f8:	c1085284 	.word	0xc1085284
c10849fc:	c1085284 	.word	0xc1085284
c1084a00:	c1085284 	.word	0xc1085284
c1084a04:	c1085284 	.word	0xc1085284
c1084a08:	c1084c60 	.word	0xc1084c60
c1084a0c:	c1085284 	.word	0xc1085284
c1084a10:	c1085284 	.word	0xc1085284
c1084a14:	c1085284 	.word	0xc1085284
c1084a18:	c1085284 	.word	0xc1085284
c1084a1c:	c1085284 	.word	0xc1085284
c1084a20:	c1085284 	.word	0xc1085284
c1084a24:	c1085284 	.word	0xc1085284
c1084a28:	c1085284 	.word	0xc1085284
c1084a2c:	c1085284 	.word	0xc1085284
c1084a30:	c1085284 	.word	0xc1085284
c1084a34:	c1085284 	.word	0xc1085284
c1084a38:	c1085028 	.word	0xc1085028
c1084a3c:	c1085284 	.word	0xc1085284
c1084a40:	c1085284 	.word	0xc1085284
c1084a44:	c1085284 	.word	0xc1085284
c1084a48:	c1085284 	.word	0xc1085284
c1084a4c:	c1085284 	.word	0xc1085284
c1084a50:	c1085284 	.word	0xc1085284
c1084a54:	c1085284 	.word	0xc1085284
c1084a58:	c1085284 	.word	0xc1085284
c1084a5c:	c1084c88 	.word	0xc1084c88
c1084a60:	c1085284 	.word	0xc1085284
c1084a64:	c1084cd4 	.word	0xc1084cd4
c1084a68:	c1084d28 	.word	0xc1084d28
c1084a6c:	c1084c88 	.word	0xc1084c88
c1084a70:	c1084c88 	.word	0xc1084c88
c1084a74:	c1084c88 	.word	0xc1084c88
c1084a78:	c1084c50 	.word	0xc1084c50
c1084a7c:	c1084d28 	.word	0xc1084d28
c1084a80:	c1084c7c 	.word	0xc1084c7c
c1084a84:	c1085284 	.word	0xc1085284
c1084a88:	c1084c60 	.word	0xc1084c60
c1084a8c:	c1085284 	.word	0xc1085284
c1084a90:	c1084e60 	.word	0xc1084e60
c1084a94:	c1084f28 	.word	0xc1084f28
c1084a98:	c1084f34 	.word	0xc1084f34
c1084a9c:	c1085284 	.word	0xc1085284
c1084aa0:	c1085284 	.word	0xc1085284
c1084aa4:	c1084f9c 	.word	0xc1084f9c
c1084aa8:	c1084c70 	.word	0xc1084c70
c1084aac:	c108501c 	.word	0xc108501c
c1084ab0:	c1085284 	.word	0xc1085284
c1084ab4:	c1085284 	.word	0xc1085284
c1084ab8:	c1085030 	.word	0xc1085030
c1084abc:	c1085284 	.word	0xc1085284
c1084ac0:	c1084c70 	.word	0xc1084c70
c1084ac4:	e3a03001 	mov	r3, #1
c1084ac8:	e54b3058 	strb	r3, [fp, #-88]	; 0x58
c1084acc:	ea000229 	b	c1085378 <format_string+0xbb4>
c1084ad0:	e3a03001 	mov	r3, #1
c1084ad4:	e54b3057 	strb	r3, [fp, #-87]	; 0x57
c1084ad8:	ea000226 	b	c1085378 <format_string+0xbb4>
c1084adc:	e3a03001 	mov	r3, #1
c1084ae0:	e54b3055 	strb	r3, [fp, #-85]	; 0x55
c1084ae4:	ea000223 	b	c1085378 <format_string+0xbb4>
c1084ae8:	e51b3034 	ldr	r3, [fp, #-52]	; 0x34
c1084aec:	e5d33000 	ldrb	r3, [r3]
c1084af0:	e50b3050 	str	r3, [fp, #-80]	; 0x50
c1084af4:	e3a03001 	mov	r3, #1
c1084af8:	e50b3040 	str	r3, [fp, #-64]	; 0x40
c1084afc:	ea00021d 	b	c1085378 <format_string+0xbb4>
c1084b00:	e59b3008 	ldr	r3, [fp, #8]
c1084b04:	e2832004 	add	r2, r3, #4
c1084b08:	e58b2008 	str	r2, [fp, #8]
c1084b0c:	e5933000 	ldr	r3, [r3]
c1084b10:	e50b304c 	str	r3, [fp, #-76]	; 0x4c
c1084b14:	e55b3057 	ldrb	r3, [fp, #-87]	; 0x57
c1084b18:	e3530000 	cmp	r3, #0
c1084b1c:	0a000214 	beq	c1085374 <format_string+0xbb0>
c1084b20:	e51b304c 	ldr	r3, [fp, #-76]	; 0x4c
c1084b24:	e2633000 	rsb	r3, r3, #0
c1084b28:	e50b304c 	str	r3, [fp, #-76]	; 0x4c
c1084b2c:	ea000211 	b	c1085378 <format_string+0xbb4>
c1084b30:	e51b3034 	ldr	r3, [fp, #-52]	; 0x34
c1084b34:	e5d33000 	ldrb	r3, [r3]
c1084b38:	e2433030 	sub	r3, r3, #48	; 0x30
c1084b3c:	e50b304c 	str	r3, [fp, #-76]	; 0x4c
c1084b40:	e51b3034 	ldr	r3, [fp, #-52]	; 0x34
c1084b44:	e2833001 	add	r3, r3, #1
c1084b48:	e50b3034 	str	r3, [fp, #-52]	; 0x34
c1084b4c:	ea00000d 	b	c1084b88 <format_string+0x3c4>
c1084b50:	e51b204c 	ldr	r2, [fp, #-76]	; 0x4c
c1084b54:	e1a03002 	mov	r3, r2
c1084b58:	e1a03103 	lsl	r3, r3, #2
c1084b5c:	e0833002 	add	r3, r3, r2
c1084b60:	e1a03083 	lsl	r3, r3, #1
c1084b64:	e1a02003 	mov	r2, r3
c1084b68:	e51b3034 	ldr	r3, [fp, #-52]	; 0x34
c1084b6c:	e5d33000 	ldrb	r3, [r3]
c1084b70:	e2433030 	sub	r3, r3, #48	; 0x30
c1084b74:	e0823003 	add	r3, r2, r3
c1084b78:	e50b304c 	str	r3, [fp, #-76]	; 0x4c
c1084b7c:	e51b3034 	ldr	r3, [fp, #-52]	; 0x34
c1084b80:	e2833001 	add	r3, r3, #1
c1084b84:	e50b3034 	str	r3, [fp, #-52]	; 0x34
c1084b88:	e51b3034 	ldr	r3, [fp, #-52]	; 0x34
c1084b8c:	e5d33000 	ldrb	r3, [r3]
c1084b90:	e2433030 	sub	r3, r3, #48	; 0x30
c1084b94:	e3530009 	cmp	r3, #9
c1084b98:	9affffec 	bls	c1084b50 <format_string+0x38c>
c1084b9c:	e55b3057 	ldrb	r3, [fp, #-87]	; 0x57
c1084ba0:	e3530000 	cmp	r3, #0
c1084ba4:	0affff64 	beq	c108493c <format_string+0x178>
c1084ba8:	e51b304c 	ldr	r3, [fp, #-76]	; 0x4c
c1084bac:	e2633000 	rsb	r3, r3, #0
c1084bb0:	e50b304c 	str	r3, [fp, #-76]	; 0x4c
c1084bb4:	eaffff61 	b	c1084940 <format_string+0x17c>
c1084bb8:	e3a03001 	mov	r3, #1
c1084bbc:	e54b3056 	strb	r3, [fp, #-86]	; 0x56
c1084bc0:	e51b3034 	ldr	r3, [fp, #-52]	; 0x34
c1084bc4:	e2833001 	add	r3, r3, #1
c1084bc8:	e50b3034 	str	r3, [fp, #-52]	; 0x34
c1084bcc:	e51b3034 	ldr	r3, [fp, #-52]	; 0x34
c1084bd0:	e5d33000 	ldrb	r3, [r3]
c1084bd4:	e353002a 	cmp	r3, #42	; 0x2a
c1084bd8:	1a000005 	bne	c1084bf4 <format_string+0x430>
c1084bdc:	e59b3008 	ldr	r3, [fp, #8]
c1084be0:	e2832004 	add	r2, r3, #4
c1084be4:	e58b2008 	str	r2, [fp, #8]
c1084be8:	e5933000 	ldr	r3, [r3]
c1084bec:	e50b3048 	str	r3, [fp, #-72]	; 0x48
c1084bf0:	ea0001e0 	b	c1085378 <format_string+0xbb4>
c1084bf4:	e3a03000 	mov	r3, #0
c1084bf8:	e50b3048 	str	r3, [fp, #-72]	; 0x48
c1084bfc:	ea00000d 	b	c1084c38 <format_string+0x474>
c1084c00:	e51b2048 	ldr	r2, [fp, #-72]	; 0x48
c1084c04:	e1a03002 	mov	r3, r2
c1084c08:	e1a03103 	lsl	r3, r3, #2
c1084c0c:	e0833002 	add	r3, r3, r2
c1084c10:	e1a03083 	lsl	r3, r3, #1
c1084c14:	e1a02003 	mov	r2, r3
c1084c18:	e51b3034 	ldr	r3, [fp, #-52]	; 0x34
c1084c1c:	e5d33000 	ldrb	r3, [r3]
c1084c20:	e2433030 	sub	r3, r3, #48	; 0x30
c1084c24:	e0823003 	add	r3, r2, r3
c1084c28:	e50b3048 	str	r3, [fp, #-72]	; 0x48
c1084c2c:	e51b3034 	ldr	r3, [fp, #-52]	; 0x34
c1084c30:	e2833001 	add	r3, r3, #1
c1084c34:	e50b3034 	str	r3, [fp, #-52]	; 0x34
c1084c38:	e51b3034 	ldr	r3, [fp, #-52]	; 0x34
c1084c3c:	e5d33000 	ldrb	r3, [r3]
c1084c40:	e2433030 	sub	r3, r3, #48	; 0x30
c1084c44:	e3530009 	cmp	r3, #9
c1084c48:	9affffec 	bls	c1084c00 <format_string+0x43c>
c1084c4c:	eaffff3b 	b	c1084940 <format_string+0x17c>
c1084c50:	e51b3054 	ldr	r3, [fp, #-84]	; 0x54
c1084c54:	e2433001 	sub	r3, r3, #1
c1084c58:	e50b3054 	str	r3, [fp, #-84]	; 0x54
c1084c5c:	ea0001c5 	b	c1085378 <format_string+0xbb4>
c1084c60:	e51b3054 	ldr	r3, [fp, #-84]	; 0x54
c1084c64:	e2833001 	add	r3, r3, #1
c1084c68:	e50b3054 	str	r3, [fp, #-84]	; 0x54
c1084c6c:	ea0001c1 	b	c1085378 <format_string+0xbb4>
c1084c70:	e3a03001 	mov	r3, #1
c1084c74:	e50b3054 	str	r3, [fp, #-84]	; 0x54
c1084c78:	ea0001be 	b	c1085378 <format_string+0xbb4>
c1084c7c:	e3a03002 	mov	r3, #2
c1084c80:	e50b3054 	str	r3, [fp, #-84]	; 0x54
c1084c84:	ea0001bb 	b	c1085378 <format_string+0xbb4>
c1084c88:	e51b3054 	ldr	r3, [fp, #-84]	; 0x54
c1084c8c:	e3530000 	cmp	r3, #0
c1084c90:	0a000002 	beq	c1084ca0 <format_string+0x4dc>
c1084c94:	e3530001 	cmp	r3, #1
c1084c98:	0a000006 	beq	c1084cb8 <format_string+0x4f4>
c1084c9c:	ea000178 	b	c1085284 <format_string+0xac0>
c1084ca0:	e59b3008 	ldr	r3, [fp, #8]
c1084ca4:	e2833007 	add	r3, r3, #7
c1084ca8:	e3c33007 	bic	r3, r3, #7
c1084cac:	e2833008 	add	r3, r3, #8
c1084cb0:	e58b3008 	str	r3, [fp, #8]
c1084cb4:	ea000005 	b	c1084cd0 <format_string+0x50c>
c1084cb8:	e59b3008 	ldr	r3, [fp, #8]
c1084cbc:	e2833007 	add	r3, r3, #7
c1084cc0:	e3c33007 	bic	r3, r3, #7
c1084cc4:	e2833008 	add	r3, r3, #8
c1084cc8:	e58b3008 	str	r3, [fp, #8]
c1084ccc:	e1a00000 	nop			; (mov r0, r0)
c1084cd0:	ea0001a6 	b	c1085370 <format_string+0xbac>
c1084cd4:	e51b3054 	ldr	r3, [fp, #-84]	; 0x54
c1084cd8:	e3530000 	cmp	r3, #0
c1084cdc:	da000003 	ble	c1084cf0 <format_string+0x52c>
c1084ce0:	e59b3008 	ldr	r3, [fp, #8]
c1084ce4:	e2833004 	add	r3, r3, #4
c1084ce8:	e58b3008 	str	r3, [fp, #8]
c1084cec:	ea000007 	b	c1084d10 <format_string+0x54c>
c1084cf0:	e51b3028 	ldr	r3, [fp, #-40]	; 0x28
c1084cf4:	e2432001 	sub	r2, r3, #1
c1084cf8:	e59b3008 	ldr	r3, [fp, #8]
c1084cfc:	e2831004 	add	r1, r3, #4
c1084d00:	e58b1008 	str	r1, [fp, #8]
c1084d04:	e5933000 	ldr	r3, [r3]
c1084d08:	e20330ff 	and	r3, r3, #255	; 0xff
c1084d0c:	e5c23000 	strb	r3, [r2]
c1084d10:	e51b3028 	ldr	r3, [fp, #-40]	; 0x28
c1084d14:	e2433001 	sub	r3, r3, #1
c1084d18:	e50b3030 	str	r3, [fp, #-48]	; 0x30
c1084d1c:	e3a03001 	mov	r3, #1
c1084d20:	e50b3038 	str	r3, [fp, #-56]	; 0x38
c1084d24:	ea000112 	b	c1085174 <format_string+0x9b0>
c1084d28:	e51b3054 	ldr	r3, [fp, #-84]	; 0x54
c1084d2c:	e2833002 	add	r3, r3, #2
c1084d30:	e3530004 	cmp	r3, #4
c1084d34:	979ff103 	ldrls	pc, [pc, r3, lsl #2]
c1084d38:	ea00014c 	b	c1085270 <format_string+0xaac>
c1084d3c:	c1084d50 	.word	0xc1084d50
c1084d40:	c1084d70 	.word	0xc1084d70
c1084d44:	c1084d90 	.word	0xc1084d90
c1084d48:	c1084db0 	.word	0xc1084db0
c1084d4c:	c1084dd0 	.word	0xc1084dd0
c1084d50:	e59b3008 	ldr	r3, [fp, #8]
c1084d54:	e2832004 	add	r2, r3, #4
c1084d58:	e58b2008 	str	r2, [fp, #8]
c1084d5c:	e5933000 	ldr	r3, [r3]
c1084d60:	e1a04fc3 	asr	r4, r3, #31
c1084d64:	e50b3024 	str	r3, [fp, #-36]	; 0x24
c1084d68:	e50b4020 	str	r4, [fp, #-32]
c1084d6c:	ea000020 	b	c1084df4 <format_string+0x630>
c1084d70:	e59b3008 	ldr	r3, [fp, #8]
c1084d74:	e2832004 	add	r2, r3, #4
c1084d78:	e58b2008 	str	r2, [fp, #8]
c1084d7c:	e5933000 	ldr	r3, [r3]
c1084d80:	e1a04fc3 	asr	r4, r3, #31
c1084d84:	e50b3024 	str	r3, [fp, #-36]	; 0x24
c1084d88:	e50b4020 	str	r4, [fp, #-32]
c1084d8c:	ea000018 	b	c1084df4 <format_string+0x630>
c1084d90:	e59b3008 	ldr	r3, [fp, #8]
c1084d94:	e2832004 	add	r2, r3, #4
c1084d98:	e58b2008 	str	r2, [fp, #8]
c1084d9c:	e5933000 	ldr	r3, [r3]
c1084da0:	e1a04fc3 	asr	r4, r3, #31
c1084da4:	e50b3024 	str	r3, [fp, #-36]	; 0x24
c1084da8:	e50b4020 	str	r4, [fp, #-32]
c1084dac:	ea000010 	b	c1084df4 <format_string+0x630>
c1084db0:	e59b3008 	ldr	r3, [fp, #8]
c1084db4:	e2832004 	add	r2, r3, #4
c1084db8:	e58b2008 	str	r2, [fp, #8]
c1084dbc:	e5933000 	ldr	r3, [r3]
c1084dc0:	e1a04fc3 	asr	r4, r3, #31
c1084dc4:	e50b3024 	str	r3, [fp, #-36]	; 0x24
c1084dc8:	e50b4020 	str	r4, [fp, #-32]
c1084dcc:	ea000008 	b	c1084df4 <format_string+0x630>
c1084dd0:	e59b3008 	ldr	r3, [fp, #8]
c1084dd4:	e2833007 	add	r3, r3, #7
c1084dd8:	e3c33007 	bic	r3, r3, #7
c1084ddc:	e2832008 	add	r2, r3, #8
c1084de0:	e58b2008 	str	r2, [fp, #8]
c1084de4:	e8930018 	ldm	r3, {r3, r4}
c1084de8:	e50b3024 	str	r3, [fp, #-36]	; 0x24
c1084dec:	e50b4020 	str	r4, [fp, #-32]
c1084df0:	e1a00000 	nop			; (mov r0, r0)
c1084df4:	e51b3020 	ldr	r3, [fp, #-32]
c1084df8:	e3530000 	cmp	r3, #0
c1084dfc:	ba000005 	blt	c1084e18 <format_string+0x654>
c1084e00:	e51b3020 	ldr	r3, [fp, #-32]
c1084e04:	e3530000 	cmp	r3, #0
c1084e08:	1a00000d 	bne	c1084e44 <format_string+0x680>
c1084e0c:	e51b3024 	ldr	r3, [fp, #-36]	; 0x24
c1084e10:	e3530000 	cmp	r3, #0
c1084e14:	ea00000a 	b	c1084e44 <format_string+0x680>
c1084e18:	e24b4024 	sub	r4, fp, #36	; 0x24
c1084e1c:	e8940018 	ldm	r4, {r3, r4}
c1084e20:	e2733000 	rsbs	r3, r3, #0
c1084e24:	e2e44000 	rsc	r4, r4, #0
c1084e28:	e50b301c 	str	r3, [fp, #-28]
c1084e2c:	e50b4018 	str	r4, [fp, #-24]
c1084e30:	e3a0302d 	mov	r3, #45	; 0x2d
c1084e34:	e50b3050 	str	r3, [fp, #-80]	; 0x50
c1084e38:	e3a03001 	mov	r3, #1
c1084e3c:	e50b3040 	str	r3, [fp, #-64]	; 0x40
c1084e40:	ea000003 	b	c1084e54 <format_string+0x690>
c1084e44:	e24b4024 	sub	r4, fp, #36	; 0x24
c1084e48:	e8940018 	ldm	r4, {r3, r4}
c1084e4c:	e50b301c 	str	r3, [fp, #-28]
c1084e50:	e50b4018 	str	r4, [fp, #-24]
c1084e54:	e3a0300a 	mov	r3, #10
c1084e58:	e50b3044 	str	r3, [fp, #-68]	; 0x44
c1084e5c:	ea0000b2 	b	c108512c <format_string+0x968>
c1084e60:	e51b3054 	ldr	r3, [fp, #-84]	; 0x54
c1084e64:	e2833002 	add	r3, r3, #2
c1084e68:	e3530004 	cmp	r3, #4
c1084e6c:	979ff103 	ldrls	pc, [pc, r3, lsl #2]
c1084e70:	ea000100 	b	c1085278 <format_string+0xab4>
c1084e74:	c1084e88 	.word	0xc1084e88
c1084e78:	c1084ea8 	.word	0xc1084ea8
c1084e7c:	c1084ecc 	.word	0xc1084ecc
c1084e80:	c1084ee8 	.word	0xc1084ee8
c1084e84:	c1084f04 	.word	0xc1084f04
c1084e88:	e59b3008 	ldr	r3, [fp, #8]
c1084e8c:	e2832004 	add	r2, r3, #4
c1084e90:	e58b2008 	str	r2, [fp, #8]
c1084e94:	e5933000 	ldr	r3, [r3]
c1084e98:	e51b203c 	ldr	r2, [fp, #-60]	; 0x3c
c1084e9c:	e20220ff 	and	r2, r2, #255	; 0xff
c1084ea0:	e5c32000 	strb	r2, [r3]
c1084ea4:	ea00001e 	b	c1084f24 <format_string+0x760>
c1084ea8:	e59b3008 	ldr	r3, [fp, #8]
c1084eac:	e2832004 	add	r2, r3, #4
c1084eb0:	e58b2008 	str	r2, [fp, #8]
c1084eb4:	e5933000 	ldr	r3, [r3]
c1084eb8:	e51b203c 	ldr	r2, [fp, #-60]	; 0x3c
c1084ebc:	e1a02802 	lsl	r2, r2, #16
c1084ec0:	e1a02822 	lsr	r2, r2, #16
c1084ec4:	e1c320b0 	strh	r2, [r3]
c1084ec8:	ea000015 	b	c1084f24 <format_string+0x760>
c1084ecc:	e59b3008 	ldr	r3, [fp, #8]
c1084ed0:	e2832004 	add	r2, r3, #4
c1084ed4:	e58b2008 	str	r2, [fp, #8]
c1084ed8:	e5933000 	ldr	r3, [r3]
c1084edc:	e51b203c 	ldr	r2, [fp, #-60]	; 0x3c
c1084ee0:	e5832000 	str	r2, [r3]
c1084ee4:	ea00000e 	b	c1084f24 <format_string+0x760>
c1084ee8:	e59b3008 	ldr	r3, [fp, #8]
c1084eec:	e2832004 	add	r2, r3, #4
c1084ef0:	e58b2008 	str	r2, [fp, #8]
c1084ef4:	e5933000 	ldr	r3, [r3]
c1084ef8:	e51b203c 	ldr	r2, [fp, #-60]	; 0x3c
c1084efc:	e5832000 	str	r2, [r3]
c1084f00:	ea000007 	b	c1084f24 <format_string+0x760>
c1084f04:	e59b3008 	ldr	r3, [fp, #8]
c1084f08:	e2832004 	add	r2, r3, #4
c1084f0c:	e58b2008 	str	r2, [fp, #8]
c1084f10:	e5932000 	ldr	r2, [r3]
c1084f14:	e51b303c 	ldr	r3, [fp, #-60]	; 0x3c
c1084f18:	e3a04000 	mov	r4, #0
c1084f1c:	e8820018 	stm	r2, {r3, r4}
c1084f20:	e1a00000 	nop			; (mov r0, r0)
c1084f24:	ea000111 	b	c1085370 <format_string+0xbac>
c1084f28:	e3a03008 	mov	r3, #8
c1084f2c:	e50b3044 	str	r3, [fp, #-68]	; 0x44
c1084f30:	ea00004a 	b	c1085060 <format_string+0x89c>
c1084f34:	e59b3008 	ldr	r3, [fp, #8]
c1084f38:	e2832004 	add	r2, r3, #4
c1084f3c:	e58b2008 	str	r2, [fp, #8]
c1084f40:	e5933000 	ldr	r3, [r3]
c1084f44:	e3a04000 	mov	r4, #0
c1084f48:	e50b301c 	str	r3, [fp, #-28]
c1084f4c:	e50b4018 	str	r4, [fp, #-24]
c1084f50:	e51b301c 	ldr	r3, [fp, #-28]
c1084f54:	e51b2018 	ldr	r2, [fp, #-24]
c1084f58:	e1833002 	orr	r3, r3, r2
c1084f5c:	e3530000 	cmp	r3, #0
c1084f60:	0a000008 	beq	c1084f88 <format_string+0x7c4>
c1084f64:	e3a03010 	mov	r3, #16
c1084f68:	e50b3044 	str	r3, [fp, #-68]	; 0x44
c1084f6c:	e3a03008 	mov	r3, #8
c1084f70:	e50b3048 	str	r3, [fp, #-72]	; 0x48
c1084f74:	e59f347c 	ldr	r3, [pc, #1148]	; c10853f8 <format_string+0xc34>
c1084f78:	e50b3050 	str	r3, [fp, #-80]	; 0x50
c1084f7c:	e3a03002 	mov	r3, #2
c1084f80:	e50b3040 	str	r3, [fp, #-64]	; 0x40
c1084f84:	ea000068 	b	c108512c <format_string+0x968>
c1084f88:	e59f346c 	ldr	r3, [pc, #1132]	; c10853fc <format_string+0xc38>
c1084f8c:	e50b3030 	str	r3, [fp, #-48]	; 0x30
c1084f90:	e3a03005 	mov	r3, #5
c1084f94:	e50b3038 	str	r3, [fp, #-56]	; 0x38
c1084f98:	ea000075 	b	c1085174 <format_string+0x9b0>
c1084f9c:	e59b3008 	ldr	r3, [fp, #8]
c1084fa0:	e2832004 	add	r2, r3, #4
c1084fa4:	e58b2008 	str	r2, [fp, #8]
c1084fa8:	e5933000 	ldr	r3, [r3]
c1084fac:	e50b3030 	str	r3, [fp, #-48]	; 0x30
c1084fb0:	e55b3056 	ldrb	r3, [fp, #-86]	; 0x56
c1084fb4:	e3530000 	cmp	r3, #0
c1084fb8:	0a000012 	beq	c1085008 <format_string+0x844>
c1084fbc:	e3a03000 	mov	r3, #0
c1084fc0:	e50b3038 	str	r3, [fp, #-56]	; 0x38
c1084fc4:	ea00000a 	b	c1084ff4 <format_string+0x830>
c1084fc8:	e51b2030 	ldr	r2, [fp, #-48]	; 0x30
c1084fcc:	e51b3038 	ldr	r3, [fp, #-56]	; 0x38
c1084fd0:	e0823003 	add	r3, r2, r3
c1084fd4:	e5d33000 	ldrb	r3, [r3]
c1084fd8:	e3530000 	cmp	r3, #0
c1084fdc:	1a000001 	bne	c1084fe8 <format_string+0x824>
c1084fe0:	e1a00000 	nop			; (mov r0, r0)
c1084fe4:	ea000062 	b	c1085174 <format_string+0x9b0>
c1084fe8:	e51b3038 	ldr	r3, [fp, #-56]	; 0x38
c1084fec:	e2833001 	add	r3, r3, #1
c1084ff0:	e50b3038 	str	r3, [fp, #-56]	; 0x38
c1084ff4:	e51b2048 	ldr	r2, [fp, #-72]	; 0x48
c1084ff8:	e51b3038 	ldr	r3, [fp, #-56]	; 0x38
c1084ffc:	e1520003 	cmp	r2, r3
c1085000:	8afffff0 	bhi	c1084fc8 <format_string+0x804>
c1085004:	ea00005a 	b	c1085174 <format_string+0x9b0>
c1085008:	e51b0030 	ldr	r0, [fp, #-48]	; 0x30
c108500c:	ebfffc0d 	bl	c1084048 <strlen>
c1085010:	e1a03000 	mov	r3, r0
c1085014:	e50b3038 	str	r3, [fp, #-56]	; 0x38
c1085018:	ea000055 	b	c1085174 <format_string+0x9b0>
c108501c:	e3a0300a 	mov	r3, #10
c1085020:	e50b3044 	str	r3, [fp, #-68]	; 0x44
c1085024:	ea00000d 	b	c1085060 <format_string+0x89c>
c1085028:	e59f33d0 	ldr	r3, [pc, #976]	; c1085400 <format_string+0xc3c>
c108502c:	e50b302c 	str	r3, [fp, #-44]	; 0x2c
c1085030:	e3a03010 	mov	r3, #16
c1085034:	e50b3044 	str	r3, [fp, #-68]	; 0x44
c1085038:	e55b3058 	ldrb	r3, [fp, #-88]	; 0x58
c108503c:	e3530000 	cmp	r3, #0
c1085040:	0a000006 	beq	c1085060 <format_string+0x89c>
c1085044:	e51b3034 	ldr	r3, [fp, #-52]	; 0x34
c1085048:	e5d33000 	ldrb	r3, [r3]
c108504c:	e1a03403 	lsl	r3, r3, #8
c1085050:	e3833030 	orr	r3, r3, #48	; 0x30
c1085054:	e50b3050 	str	r3, [fp, #-80]	; 0x50
c1085058:	e3a03002 	mov	r3, #2
c108505c:	e50b3040 	str	r3, [fp, #-64]	; 0x40
c1085060:	e51b3054 	ldr	r3, [fp, #-84]	; 0x54
c1085064:	e2833002 	add	r3, r3, #2
c1085068:	e3530004 	cmp	r3, #4
c108506c:	979ff103 	ldrls	pc, [pc, r3, lsl #2]
c1085070:	ea000082 	b	c1085280 <format_string+0xabc>
c1085074:	c1085088 	.word	0xc1085088
c1085078:	c10850a8 	.word	0xc10850a8
c108507c:	c10850c8 	.word	0xc10850c8
c1085080:	c10850e8 	.word	0xc10850e8
c1085084:	c1085108 	.word	0xc1085108
c1085088:	e59b3008 	ldr	r3, [fp, #8]
c108508c:	e2832004 	add	r2, r3, #4
c1085090:	e58b2008 	str	r2, [fp, #8]
c1085094:	e5933000 	ldr	r3, [r3]
c1085098:	e1a04fc3 	asr	r4, r3, #31
c108509c:	e50b301c 	str	r3, [fp, #-28]
c10850a0:	e50b4018 	str	r4, [fp, #-24]
c10850a4:	ea000020 	b	c108512c <format_string+0x968>
c10850a8:	e59b3008 	ldr	r3, [fp, #8]
c10850ac:	e2832004 	add	r2, r3, #4
c10850b0:	e58b2008 	str	r2, [fp, #8]
c10850b4:	e5933000 	ldr	r3, [r3]
c10850b8:	e1a04fc3 	asr	r4, r3, #31
c10850bc:	e50b301c 	str	r3, [fp, #-28]
c10850c0:	e50b4018 	str	r4, [fp, #-24]
c10850c4:	ea000018 	b	c108512c <format_string+0x968>
c10850c8:	e59b3008 	ldr	r3, [fp, #8]
c10850cc:	e2832004 	add	r2, r3, #4
c10850d0:	e58b2008 	str	r2, [fp, #8]
c10850d4:	e5933000 	ldr	r3, [r3]
c10850d8:	e3a04000 	mov	r4, #0
c10850dc:	e50b301c 	str	r3, [fp, #-28]
c10850e0:	e50b4018 	str	r4, [fp, #-24]
c10850e4:	ea000010 	b	c108512c <format_string+0x968>
c10850e8:	e59b3008 	ldr	r3, [fp, #8]
c10850ec:	e2832004 	add	r2, r3, #4
c10850f0:	e58b2008 	str	r2, [fp, #8]
c10850f4:	e5933000 	ldr	r3, [r3]
c10850f8:	e3a04000 	mov	r4, #0
c10850fc:	e50b301c 	str	r3, [fp, #-28]
c1085100:	e50b4018 	str	r4, [fp, #-24]
c1085104:	ea000008 	b	c108512c <format_string+0x968>
c1085108:	e59b3008 	ldr	r3, [fp, #8]
c108510c:	e2833007 	add	r3, r3, #7
c1085110:	e3c33007 	bic	r3, r3, #7
c1085114:	e2832008 	add	r2, r3, #8
c1085118:	e58b2008 	str	r2, [fp, #8]
c108511c:	e8930018 	ldm	r3, {r3, r4}
c1085120:	e50b301c 	str	r3, [fp, #-28]
c1085124:	e50b4018 	str	r4, [fp, #-24]
c1085128:	e1a00000 	nop			; (mov r0, r0)
c108512c:	e51b3044 	ldr	r3, [fp, #-68]	; 0x44
c1085130:	e58d3000 	str	r3, [sp]
c1085134:	e51b302c 	ldr	r3, [fp, #-44]	; 0x2c
c1085138:	e58d3004 	str	r3, [sp, #4]
c108513c:	e51b0028 	ldr	r0, [fp, #-40]	; 0x28
c1085140:	e24b301c 	sub	r3, fp, #28
c1085144:	e893000c 	ldm	r3, {r2, r3}
c1085148:	ebfffc3e 	bl	c1084248 <umaxtostr>
c108514c:	e1a03000 	mov	r3, r0
c1085150:	e50b3030 	str	r3, [fp, #-48]	; 0x30
c1085154:	e51b2028 	ldr	r2, [fp, #-40]	; 0x28
c1085158:	e51b3030 	ldr	r3, [fp, #-48]	; 0x30
c108515c:	e0633002 	rsb	r3, r3, r2
c1085160:	e50b3038 	str	r3, [fp, #-56]	; 0x38
c1085164:	e51b2048 	ldr	r2, [fp, #-72]	; 0x48
c1085168:	e51b3038 	ldr	r3, [fp, #-56]	; 0x38
c108516c:	e1520003 	cmp	r2, r3
c1085170:	2a000001 	bcs	c108517c <format_string+0x9b8>
c1085174:	e51b3038 	ldr	r3, [fp, #-56]	; 0x38
c1085178:	e50b3048 	str	r3, [fp, #-72]	; 0x48
c108517c:	e55b3055 	ldrb	r3, [fp, #-85]	; 0x55
c1085180:	e3530000 	cmp	r3, #0
c1085184:	0a00000a 	beq	c10851b4 <format_string+0x9f0>
c1085188:	e51b204c 	ldr	r2, [fp, #-76]	; 0x4c
c108518c:	e51b3040 	ldr	r3, [fp, #-64]	; 0x40
c1085190:	e0632002 	rsb	r2, r3, r2
c1085194:	e51b3048 	ldr	r3, [fp, #-72]	; 0x48
c1085198:	e1520003 	cmp	r2, r3
c108519c:	da000004 	ble	c10851b4 <format_string+0x9f0>
c10851a0:	e51b204c 	ldr	r2, [fp, #-76]	; 0x4c
c10851a4:	e51b3040 	ldr	r3, [fp, #-64]	; 0x40
c10851a8:	e0633002 	rsb	r3, r3, r2
c10851ac:	e50b3048 	str	r3, [fp, #-72]	; 0x48
c10851b0:	ea00000d 	b	c10851ec <format_string+0xa28>
c10851b4:	e55b3058 	ldrb	r3, [fp, #-88]	; 0x58
c10851b8:	e3530000 	cmp	r3, #0
c10851bc:	0a00000a 	beq	c10851ec <format_string+0xa28>
c10851c0:	e51b3044 	ldr	r3, [fp, #-68]	; 0x44
c10851c4:	e3530008 	cmp	r3, #8
c10851c8:	1a000007 	bne	c10851ec <format_string+0xa28>
c10851cc:	e51b301c 	ldr	r3, [fp, #-28]
c10851d0:	e51b2018 	ldr	r2, [fp, #-24]
c10851d4:	e1833002 	orr	r3, r3, r2
c10851d8:	e3530000 	cmp	r3, #0
c10851dc:	0a000002 	beq	c10851ec <format_string+0xa28>
c10851e0:	e51b3048 	ldr	r3, [fp, #-72]	; 0x48
c10851e4:	e2833001 	add	r3, r3, #1
c10851e8:	e50b3048 	str	r3, [fp, #-72]	; 0x48
c10851ec:	e51b2038 	ldr	r2, [fp, #-56]	; 0x38
c10851f0:	e55b307d 	ldrb	r3, [fp, #-125]	; 0x7d
c10851f4:	e51b1084 	ldr	r1, [fp, #-132]	; 0x84
c10851f8:	e58d1000 	str	r1, [sp]
c10851fc:	e51b1030 	ldr	r1, [fp, #-48]	; 0x30
c1085200:	e58d1004 	str	r1, [sp, #4]
c1085204:	e58d2008 	str	r2, [sp, #8]
c1085208:	e51b2050 	ldr	r2, [fp, #-80]	; 0x50
c108520c:	e58d200c 	str	r2, [sp, #12]
c1085210:	e51b2040 	ldr	r2, [fp, #-64]	; 0x40
c1085214:	e58d2010 	str	r2, [sp, #16]
c1085218:	e51b204c 	ldr	r2, [fp, #-76]	; 0x4c
c108521c:	e58d2014 	str	r2, [sp, #20]
c1085220:	e51b2048 	ldr	r2, [fp, #-72]	; 0x48
c1085224:	e58d2018 	str	r2, [sp, #24]
c1085228:	e24b2059 	sub	r2, fp, #89	; 0x59
c108522c:	e58d201c 	str	r2, [sp, #28]
c1085230:	e51b0078 	ldr	r0, [fp, #-120]	; 0x78
c1085234:	e51b107c 	ldr	r1, [fp, #-124]	; 0x7c
c1085238:	e1a02003 	mov	r2, r3
c108523c:	e51b303c 	ldr	r3, [fp, #-60]	; 0x3c
c1085240:	ebfffc4d 	bl	c108437c <fprintf1>
c1085244:	e1a03000 	mov	r3, r0
c1085248:	e50b3010 	str	r3, [fp, #-16]
c108524c:	e51b3010 	ldr	r3, [fp, #-16]
c1085250:	e51b203c 	ldr	r2, [fp, #-60]	; 0x3c
c1085254:	e0823003 	add	r3, r2, r3
c1085258:	e50b303c 	str	r3, [fp, #-60]	; 0x3c
c108525c:	e51b3010 	ldr	r3, [fp, #-16]
c1085260:	e51b2078 	ldr	r2, [fp, #-120]	; 0x78
c1085264:	e0823003 	add	r3, r2, r3
c1085268:	e50b3078 	str	r3, [fp, #-120]	; 0x78
c108526c:	ea00003f 	b	c1085370 <format_string+0xbac>
c1085270:	e1a00000 	nop			; (mov r0, r0)
c1085274:	ea000002 	b	c1085284 <format_string+0xac0>
c1085278:	e1a00000 	nop			; (mov r0, r0)
c108527c:	ea000000 	b	c1085284 <format_string+0xac0>
c1085280:	e1a00000 	nop			; (mov r0, r0)
c1085284:	e51b3034 	ldr	r3, [fp, #-52]	; 0x34
c1085288:	e2433001 	sub	r3, r3, #1
c108528c:	e50b3030 	str	r3, [fp, #-48]	; 0x30
c1085290:	ea000002 	b	c10852a0 <format_string+0xadc>
c1085294:	e51b3030 	ldr	r3, [fp, #-48]	; 0x30
c1085298:	e2433001 	sub	r3, r3, #1
c108529c:	e50b3030 	str	r3, [fp, #-48]	; 0x30
c10852a0:	e51b3030 	ldr	r3, [fp, #-48]	; 0x30
c10852a4:	e5d33000 	ldrb	r3, [r3]
c10852a8:	e3530025 	cmp	r3, #37	; 0x25
c10852ac:	1afffff8 	bne	c1085294 <format_string+0xad0>
c10852b0:	ea000029 	b	c108535c <format_string+0xb98>
c10852b4:	e51b3084 	ldr	r3, [fp, #-132]	; 0x84
c10852b8:	e3730001 	cmn	r3, #1
c10852bc:	0a00000b 	beq	c10852f0 <format_string+0xb2c>
c10852c0:	e51b203c 	ldr	r2, [fp, #-60]	; 0x3c
c10852c4:	e51b3084 	ldr	r3, [fp, #-132]	; 0x84
c10852c8:	e1520003 	cmp	r2, r3
c10852cc:	1a000007 	bne	c10852f0 <format_string+0xb2c>
c10852d0:	e51b3078 	ldr	r3, [fp, #-120]	; 0x78
c10852d4:	e3a02000 	mov	r2, #0
c10852d8:	e5c32000 	strb	r2, [r3]
c10852dc:	e51b3078 	ldr	r3, [fp, #-120]	; 0x78
c10852e0:	e2833001 	add	r3, r3, #1
c10852e4:	e50b3078 	str	r3, [fp, #-120]	; 0x78
c10852e8:	e3a03001 	mov	r3, #1
c10852ec:	e54b3059 	strb	r3, [fp, #-89]	; 0x59
c10852f0:	e55b307d 	ldrb	r3, [fp, #-125]	; 0x7d
c10852f4:	e3530000 	cmp	r3, #0
c10852f8:	0a000005 	beq	c1085314 <format_string+0xb50>
c10852fc:	e51b3034 	ldr	r3, [fp, #-52]	; 0x34
c1085300:	e5d33000 	ldrb	r3, [r3]
c1085304:	e1a00003 	mov	r0, r3
c1085308:	e51b107c 	ldr	r1, [fp, #-124]	; 0x7c
c108530c:	eb00003c 	bl	c1085404 <fputc>
c1085310:	ea00000b 	b	c1085344 <format_string+0xb80>
c1085314:	e55b3059 	ldrb	r3, [fp, #-89]	; 0x59
c1085318:	e2233001 	eor	r3, r3, #1
c108531c:	e20330ff 	and	r3, r3, #255	; 0xff
c1085320:	e3530000 	cmp	r3, #0
c1085324:	0a000006 	beq	c1085344 <format_string+0xb80>
c1085328:	e51b3034 	ldr	r3, [fp, #-52]	; 0x34
c108532c:	e5d32000 	ldrb	r2, [r3]
c1085330:	e51b3078 	ldr	r3, [fp, #-120]	; 0x78
c1085334:	e5c32000 	strb	r2, [r3]
c1085338:	e51b3078 	ldr	r3, [fp, #-120]	; 0x78
c108533c:	e2833001 	add	r3, r3, #1
c1085340:	e50b3078 	str	r3, [fp, #-120]	; 0x78
c1085344:	e51b303c 	ldr	r3, [fp, #-60]	; 0x3c
c1085348:	e2833001 	add	r3, r3, #1
c108534c:	e50b303c 	str	r3, [fp, #-60]	; 0x3c
c1085350:	e51b3030 	ldr	r3, [fp, #-48]	; 0x30
c1085354:	e2833001 	add	r3, r3, #1
c1085358:	e50b3030 	str	r3, [fp, #-48]	; 0x30
c108535c:	e51b2030 	ldr	r2, [fp, #-48]	; 0x30
c1085360:	e51b3034 	ldr	r3, [fp, #-52]	; 0x34
c1085364:	e1520003 	cmp	r2, r3
c1085368:	9affffd1 	bls	c10852b4 <format_string+0xaf0>
c108536c:	ea000005 	b	c1085388 <format_string+0xbc4>
c1085370:	ea000004 	b	c1085388 <format_string+0xbc4>
c1085374:	e1a00000 	nop			; (mov r0, r0)
c1085378:	e51b3034 	ldr	r3, [fp, #-52]	; 0x34
c108537c:	e2833001 	add	r3, r3, #1
c1085380:	e50b3034 	str	r3, [fp, #-52]	; 0x34
c1085384:	eafffd6d 	b	c1084940 <format_string+0x17c>
c1085388:	e51b3034 	ldr	r3, [fp, #-52]	; 0x34
c108538c:	e2833001 	add	r3, r3, #1
c1085390:	e50b3034 	str	r3, [fp, #-52]	; 0x34
c1085394:	e51b3034 	ldr	r3, [fp, #-52]	; 0x34
c1085398:	e5d33000 	ldrb	r3, [r3]
c108539c:	e3530000 	cmp	r3, #0
c10853a0:	1afffd1f 	bne	c1084824 <format_string+0x60>
c10853a4:	e55b307d 	ldrb	r3, [fp, #-125]	; 0x7d
c10853a8:	e2233001 	eor	r3, r3, #1
c10853ac:	e20330ff 	and	r3, r3, #255	; 0xff
c10853b0:	e3530000 	cmp	r3, #0
c10853b4:	0a00000a 	beq	c10853e4 <format_string+0xc20>
c10853b8:	e55b3059 	ldrb	r3, [fp, #-89]	; 0x59
c10853bc:	e2233001 	eor	r3, r3, #1
c10853c0:	e20330ff 	and	r3, r3, #255	; 0xff
c10853c4:	e3530000 	cmp	r3, #0
c10853c8:	0a000005 	beq	c10853e4 <format_string+0xc20>
c10853cc:	e51b3078 	ldr	r3, [fp, #-120]	; 0x78
c10853d0:	e3a02000 	mov	r2, #0
c10853d4:	e5c32000 	strb	r2, [r3]
c10853d8:	e51b3078 	ldr	r3, [fp, #-120]	; 0x78
c10853dc:	e2833001 	add	r3, r3, #1
c10853e0:	e50b3078 	str	r3, [fp, #-120]	; 0x78
c10853e4:	e51b303c 	ldr	r3, [fp, #-60]	; 0x3c
c10853e8:	e1a00003 	mov	r0, r3
c10853ec:	e24bd008 	sub	sp, fp, #8
c10853f0:	e8bd8810 	pop	{r4, fp, pc}
c10853f4:	c1086464 	.word	0xc1086464
c10853f8:	00007830 	.word	0x00007830
c10853fc:	c1086484 	.word	0xc1086484
c1085400:	c1086474 	.word	0xc1086474

c1085404 <fputc>:
c1085404:	e92d4800 	push	{fp, lr}
c1085408:	e28db004 	add	fp, sp, #4
c108540c:	e24dd010 	sub	sp, sp, #16
c1085410:	e50b0010 	str	r0, [fp, #-16]
c1085414:	e50b1014 	str	r1, [fp, #-20]
c1085418:	e51b3010 	ldr	r3, [fp, #-16]
c108541c:	e20330ff 	and	r3, r3, #255	; 0xff
c1085420:	e54b3005 	strb	r3, [fp, #-5]
c1085424:	e51b3014 	ldr	r3, [fp, #-20]
c1085428:	e593c008 	ldr	ip, [r3, #8]
c108542c:	e51b3014 	ldr	r3, [fp, #-20]
c1085430:	e5932020 	ldr	r2, [r3, #32]
c1085434:	e51b3014 	ldr	r3, [fp, #-20]
c1085438:	e5933000 	ldr	r3, [r3]
c108543c:	e24b1005 	sub	r1, fp, #5
c1085440:	e1a00001 	mov	r0, r1
c1085444:	e1a01002 	mov	r1, r2
c1085448:	e3a02001 	mov	r2, #1
c108544c:	e12fff3c 	blx	ip
c1085450:	e1a03000 	mov	r3, r0
c1085454:	e3530001 	cmp	r3, #1
c1085458:	1a000006 	bne	c1085478 <fputc+0x74>
c108545c:	e51b3014 	ldr	r3, [fp, #-20]
c1085460:	e5933020 	ldr	r3, [r3, #32]
c1085464:	e2832001 	add	r2, r3, #1
c1085468:	e51b3014 	ldr	r3, [fp, #-20]
c108546c:	e5832020 	str	r2, [r3, #32]
c1085470:	e51b3010 	ldr	r3, [fp, #-16]
c1085474:	ea000000 	b	c108547c <fputc+0x78>
c1085478:	e3e03000 	mvn	r3, #0
c108547c:	e1a00003 	mov	r0, r3
c1085480:	e24bd004 	sub	sp, fp, #4
c1085484:	e8bd8800 	pop	{fp, pc}

c1085488 <__fputc>:
c1085488:	e92d4800 	push	{fp, lr}
c108548c:	e28db004 	add	fp, sp, #4
c1085490:	e24dd008 	sub	sp, sp, #8
c1085494:	e50b0008 	str	r0, [fp, #-8]
c1085498:	e50b100c 	str	r1, [fp, #-12]
c108549c:	e59f3024 	ldr	r3, [pc, #36]	; c10854c8 <__fputc+0x40>
c10854a0:	e5932000 	ldr	r2, [r3]
c10854a4:	e51b3008 	ldr	r3, [fp, #-8]
c10854a8:	e20330ff 	and	r3, r3, #255	; 0xff
c10854ac:	e1a00002 	mov	r0, r2
c10854b0:	e1a01003 	mov	r1, r3
c10854b4:	ebfff689 	bl	c1082ee0 <uart_tx_char>
c10854b8:	e3a03000 	mov	r3, #0
c10854bc:	e1a00003 	mov	r0, r3
c10854c0:	e24bd004 	sub	sp, fp, #4
c10854c4:	e8bd8800 	pop	{fp, pc}
c10854c8:	c110f828 	.word	0xc110f828

c10854cc <__aeabi_uidiv>:
c10854cc:	e2512001 	subs	r2, r1, #1
c10854d0:	012fff1e 	bxeq	lr
c10854d4:	3a000036 	bcc	c10855b4 <__aeabi_uidiv+0xe8>
c10854d8:	e1500001 	cmp	r0, r1
c10854dc:	9a000022 	bls	c108556c <__aeabi_uidiv+0xa0>
c10854e0:	e1110002 	tst	r1, r2
c10854e4:	0a000023 	beq	c1085578 <__aeabi_uidiv+0xac>
c10854e8:	e311020e 	tst	r1, #-536870912	; 0xe0000000
c10854ec:	01a01181 	lsleq	r1, r1, #3
c10854f0:	03a03008 	moveq	r3, #8
c10854f4:	13a03001 	movne	r3, #1
c10854f8:	e3510201 	cmp	r1, #268435456	; 0x10000000
c10854fc:	31510000 	cmpcc	r1, r0
c1085500:	31a01201 	lslcc	r1, r1, #4
c1085504:	31a03203 	lslcc	r3, r3, #4
c1085508:	3afffffa 	bcc	c10854f8 <__aeabi_uidiv+0x2c>
c108550c:	e3510102 	cmp	r1, #-2147483648	; 0x80000000
c1085510:	31510000 	cmpcc	r1, r0
c1085514:	31a01081 	lslcc	r1, r1, #1
c1085518:	31a03083 	lslcc	r3, r3, #1
c108551c:	3afffffa 	bcc	c108550c <__aeabi_uidiv+0x40>
c1085520:	e3a02000 	mov	r2, #0
c1085524:	e1500001 	cmp	r0, r1
c1085528:	20400001 	subcs	r0, r0, r1
c108552c:	21822003 	orrcs	r2, r2, r3
c1085530:	e15000a1 	cmp	r0, r1, lsr #1
c1085534:	204000a1 	subcs	r0, r0, r1, lsr #1
c1085538:	218220a3 	orrcs	r2, r2, r3, lsr #1
c108553c:	e1500121 	cmp	r0, r1, lsr #2
c1085540:	20400121 	subcs	r0, r0, r1, lsr #2
c1085544:	21822123 	orrcs	r2, r2, r3, lsr #2
c1085548:	e15001a1 	cmp	r0, r1, lsr #3
c108554c:	204001a1 	subcs	r0, r0, r1, lsr #3
c1085550:	218221a3 	orrcs	r2, r2, r3, lsr #3
c1085554:	e3500000 	cmp	r0, #0
c1085558:	11b03223 	lsrsne	r3, r3, #4
c108555c:	11a01221 	lsrne	r1, r1, #4
c1085560:	1affffef 	bne	c1085524 <__aeabi_uidiv+0x58>
c1085564:	e1a00002 	mov	r0, r2
c1085568:	e12fff1e 	bx	lr
c108556c:	03a00001 	moveq	r0, #1
c1085570:	13a00000 	movne	r0, #0
c1085574:	e12fff1e 	bx	lr
c1085578:	e3510801 	cmp	r1, #65536	; 0x10000
c108557c:	21a01821 	lsrcs	r1, r1, #16
c1085580:	23a02010 	movcs	r2, #16
c1085584:	33a02000 	movcc	r2, #0
c1085588:	e3510c01 	cmp	r1, #256	; 0x100
c108558c:	21a01421 	lsrcs	r1, r1, #8
c1085590:	22822008 	addcs	r2, r2, #8
c1085594:	e3510010 	cmp	r1, #16
c1085598:	21a01221 	lsrcs	r1, r1, #4
c108559c:	22822004 	addcs	r2, r2, #4
c10855a0:	e3510004 	cmp	r1, #4
c10855a4:	82822003 	addhi	r2, r2, #3
c10855a8:	908220a1 	addls	r2, r2, r1, lsr #1
c10855ac:	e1a00230 	lsr	r0, r0, r2
c10855b0:	e12fff1e 	bx	lr
c10855b4:	e3500000 	cmp	r0, #0
c10855b8:	13e00000 	mvnne	r0, #0
c10855bc:	ea000007 	b	c10855e0 <__aeabi_idiv0>

c10855c0 <__aeabi_uidivmod>:
c10855c0:	e3510000 	cmp	r1, #0
c10855c4:	0afffffa 	beq	c10855b4 <__aeabi_uidiv+0xe8>
c10855c8:	e92d4003 	push	{r0, r1, lr}
c10855cc:	ebffffbe 	bl	c10854cc <__aeabi_uidiv>
c10855d0:	e8bd4006 	pop	{r1, r2, lr}
c10855d4:	e0030092 	mul	r3, r2, r0
c10855d8:	e0411003 	sub	r1, r1, r3
c10855dc:	e12fff1e 	bx	lr

c10855e0 <__aeabi_idiv0>:
c10855e0:	e12fff1e 	bx	lr

c10855e4 <__aeabi_uldivmod>:
c10855e4:	e3530000 	cmp	r3, #0
c10855e8:	03520000 	cmpeq	r2, #0
c10855ec:	1a000004 	bne	c1085604 <__aeabi_uldivmod+0x20>
c10855f0:	e3510000 	cmp	r1, #0
c10855f4:	03500000 	cmpeq	r0, #0
c10855f8:	13e01000 	mvnne	r1, #0
c10855fc:	13e00000 	mvnne	r0, #0
c1085600:	eafffff6 	b	c10855e0 <__aeabi_idiv0>
c1085604:	e24dd008 	sub	sp, sp, #8
c1085608:	e92d6000 	push	{sp, lr}
c108560c:	eb000003 	bl	c1085620 <__gnu_uldivmod_helper>
c1085610:	e59de004 	ldr	lr, [sp, #4]
c1085614:	e28dd008 	add	sp, sp, #8
c1085618:	e8bd000c 	pop	{r2, r3}
c108561c:	e12fff1e 	bx	lr

c1085620 <__gnu_uldivmod_helper>:
c1085620:	e92d43f8 	push	{r3, r4, r5, r6, r7, r8, r9, lr}
c1085624:	e1a04002 	mov	r4, r2
c1085628:	e1a07003 	mov	r7, r3
c108562c:	e1a05000 	mov	r5, r0
c1085630:	e1a06001 	mov	r6, r1
c1085634:	eb00013f 	bl	c1085b38 <__udivdi3>
c1085638:	e0070790 	mul	r7, r0, r7
c108563c:	e0898490 	umull	r8, r9, r0, r4
c1085640:	e0247491 	mla	r4, r1, r4, r7
c1085644:	e1a02008 	mov	r2, r8
c1085648:	e0843009 	add	r3, r4, r9
c108564c:	e0555002 	subs	r5, r5, r2
c1085650:	e0c66003 	sbc	r6, r6, r3
c1085654:	e59d3020 	ldr	r3, [sp, #32]
c1085658:	e8830060 	stm	r3, {r5, r6}
c108565c:	e8bd43f8 	pop	{r3, r4, r5, r6, r7, r8, r9, lr}
c1085660:	e12fff1e 	bx	lr

c1085664 <__gnu_ldivmod_helper>:
c1085664:	e92d43f8 	push	{r3, r4, r5, r6, r7, r8, r9, lr}
c1085668:	e1a04002 	mov	r4, r2
c108566c:	e1a07003 	mov	r7, r3
c1085670:	e1a05000 	mov	r5, r0
c1085674:	e1a06001 	mov	r6, r1
c1085678:	eb00000a 	bl	c10856a8 <__divdi3>
c108567c:	e0070790 	mul	r7, r0, r7
c1085680:	e0898490 	umull	r8, r9, r0, r4
c1085684:	e0247491 	mla	r4, r1, r4, r7
c1085688:	e1a02008 	mov	r2, r8
c108568c:	e0843009 	add	r3, r4, r9
c1085690:	e0555002 	subs	r5, r5, r2
c1085694:	e0c66003 	sbc	r6, r6, r3
c1085698:	e59d3020 	ldr	r3, [sp, #32]
c108569c:	e8830060 	stm	r3, {r5, r6}
c10856a0:	e8bd43f8 	pop	{r3, r4, r5, r6, r7, r8, r9, lr}
c10856a4:	e12fff1e 	bx	lr

c10856a8 <__divdi3>:
c10856a8:	e92d4ff0 	push	{r4, r5, r6, r7, r8, r9, sl, fp, lr}
c10856ac:	e3510000 	cmp	r1, #0
c10856b0:	e24dd014 	sub	sp, sp, #20
c10856b4:	a3a06000 	movge	r6, #0
c10856b8:	ba0000d4 	blt	c1085a10 <__divdi3+0x368>
c10856bc:	e3530000 	cmp	r3, #0
c10856c0:	ba0000ce 	blt	c1085a00 <__divdi3+0x358>
c10856c4:	e2538000 	subs	r8, r3, #0
c10856c8:	e1a0b001 	mov	fp, r1
c10856cc:	e1a04002 	mov	r4, r2
c10856d0:	e1a05000 	mov	r5, r0
c10856d4:	1a000034 	bne	c10857ac <__divdi3+0x104>
c10856d8:	e1520001 	cmp	r2, r1
c10856dc:	9a000041 	bls	c10857e8 <__divdi3+0x140>
c10856e0:	e1a00002 	mov	r0, r2
c10856e4:	eb000222 	bl	c1085f74 <__clzsi2>
c10856e8:	e3500000 	cmp	r0, #0
c10856ec:	12603020 	rsbne	r3, r0, #32
c10856f0:	11a03335 	lsrne	r3, r5, r3
c10856f4:	11a04014 	lslne	r4, r4, r0
c10856f8:	1183b01b 	orrne	fp, r3, fp, lsl r0
c10856fc:	e1a08824 	lsr	r8, r4, #16
c1085700:	11a05015 	lslne	r5, r5, r0
c1085704:	e1a01008 	mov	r1, r8
c1085708:	e1a0000b 	mov	r0, fp
c108570c:	ebffff6e 	bl	c10854cc <__aeabi_uidiv>
c1085710:	e1a01008 	mov	r1, r8
c1085714:	e1a09000 	mov	r9, r0
c1085718:	e1a0000b 	mov	r0, fp
c108571c:	ebffffa7 	bl	c10855c0 <__aeabi_uidivmod>
c1085720:	e1a07804 	lsl	r7, r4, #16
c1085724:	e1a07827 	lsr	r7, r7, #16
c1085728:	e0030997 	mul	r3, r7, r9
c108572c:	e1a0b825 	lsr	fp, r5, #16
c1085730:	e18bb801 	orr	fp, fp, r1, lsl #16
c1085734:	e153000b 	cmp	r3, fp
c1085738:	9a000005 	bls	c1085754 <__divdi3+0xac>
c108573c:	e09bb004 	adds	fp, fp, r4
c1085740:	e2499001 	sub	r9, r9, #1
c1085744:	2a000002 	bcs	c1085754 <__divdi3+0xac>
c1085748:	e153000b 	cmp	r3, fp
c108574c:	82499001 	subhi	r9, r9, #1
c1085750:	808bb004 	addhi	fp, fp, r4
c1085754:	e063b00b 	rsb	fp, r3, fp
c1085758:	e1a01008 	mov	r1, r8
c108575c:	e1a0000b 	mov	r0, fp
c1085760:	ebffff59 	bl	c10854cc <__aeabi_uidiv>
c1085764:	e1a01008 	mov	r1, r8
c1085768:	e1a0a000 	mov	sl, r0
c108576c:	e1a0000b 	mov	r0, fp
c1085770:	ebffff92 	bl	c10855c0 <__aeabi_uidivmod>
c1085774:	e007079a 	mul	r7, sl, r7
c1085778:	e1a00805 	lsl	r0, r5, #16
c108577c:	e1a05820 	lsr	r5, r0, #16
c1085780:	e1855801 	orr	r5, r5, r1, lsl #16
c1085784:	e1570005 	cmp	r7, r5
c1085788:	9a000004 	bls	c10857a0 <__divdi3+0xf8>
c108578c:	e0955004 	adds	r5, r5, r4
c1085790:	e24aa001 	sub	sl, sl, #1
c1085794:	2a000001 	bcs	c10857a0 <__divdi3+0xf8>
c1085798:	e1570005 	cmp	r7, r5
c108579c:	824aa001 	subhi	sl, sl, #1
c10857a0:	e18aa809 	orr	sl, sl, r9, lsl #16
c10857a4:	e3a07000 	mov	r7, #0
c10857a8:	ea000003 	b	c10857bc <__divdi3+0x114>
c10857ac:	e1580001 	cmp	r8, r1
c10857b0:	9a000044 	bls	c10858c8 <__divdi3+0x220>
c10857b4:	e3a07000 	mov	r7, #0
c10857b8:	e1a0a007 	mov	sl, r7
c10857bc:	e3560000 	cmp	r6, #0
c10857c0:	e1a0300a 	mov	r3, sl
c10857c4:	e1a04007 	mov	r4, r7
c10857c8:	0a000001 	beq	c10857d4 <__divdi3+0x12c>
c10857cc:	e2733000 	rsbs	r3, r3, #0
c10857d0:	e2e44000 	rsc	r4, r4, #0
c10857d4:	e1a01004 	mov	r1, r4
c10857d8:	e1a00003 	mov	r0, r3
c10857dc:	e28dd014 	add	sp, sp, #20
c10857e0:	e8bd4ff0 	pop	{r4, r5, r6, r7, r8, r9, sl, fp, lr}
c10857e4:	e12fff1e 	bx	lr
c10857e8:	e3520000 	cmp	r2, #0
c10857ec:	1a000003 	bne	c1085800 <__divdi3+0x158>
c10857f0:	e1a01002 	mov	r1, r2
c10857f4:	e3a00001 	mov	r0, #1
c10857f8:	ebffff33 	bl	c10854cc <__aeabi_uidiv>
c10857fc:	e1a04000 	mov	r4, r0
c1085800:	e1a00004 	mov	r0, r4
c1085804:	eb0001da 	bl	c1085f74 <__clzsi2>
c1085808:	e250a000 	subs	sl, r0, #0
c108580c:	1a000083 	bne	c1085a20 <__divdi3+0x378>
c1085810:	e3a01001 	mov	r1, #1
c1085814:	e1a08804 	lsl	r8, r4, #16
c1085818:	e58d100c 	str	r1, [sp, #12]
c108581c:	e064a00b 	rsb	sl, r4, fp
c1085820:	e1a08828 	lsr	r8, r8, #16
c1085824:	e1a07824 	lsr	r7, r4, #16
c1085828:	e1a01007 	mov	r1, r7
c108582c:	e1a0000a 	mov	r0, sl
c1085830:	ebffff25 	bl	c10854cc <__aeabi_uidiv>
c1085834:	e1a01007 	mov	r1, r7
c1085838:	e1a09000 	mov	r9, r0
c108583c:	e1a0000a 	mov	r0, sl
c1085840:	ebffff5e 	bl	c10855c0 <__aeabi_uidivmod>
c1085844:	e0030998 	mul	r3, r8, r9
c1085848:	e1a0a825 	lsr	sl, r5, #16
c108584c:	e18ab801 	orr	fp, sl, r1, lsl #16
c1085850:	e153000b 	cmp	r3, fp
c1085854:	9a000005 	bls	c1085870 <__divdi3+0x1c8>
c1085858:	e09bb004 	adds	fp, fp, r4
c108585c:	e2499001 	sub	r9, r9, #1
c1085860:	2a000002 	bcs	c1085870 <__divdi3+0x1c8>
c1085864:	e153000b 	cmp	r3, fp
c1085868:	82499001 	subhi	r9, r9, #1
c108586c:	808bb004 	addhi	fp, fp, r4
c1085870:	e063b00b 	rsb	fp, r3, fp
c1085874:	e1a01007 	mov	r1, r7
c1085878:	e1a0000b 	mov	r0, fp
c108587c:	ebffff12 	bl	c10854cc <__aeabi_uidiv>
c1085880:	e1a01007 	mov	r1, r7
c1085884:	e1a0a000 	mov	sl, r0
c1085888:	e1a0000b 	mov	r0, fp
c108588c:	ebffff4b 	bl	c10855c0 <__aeabi_uidivmod>
c1085890:	e008089a 	mul	r8, sl, r8
c1085894:	e1a07805 	lsl	r7, r5, #16
c1085898:	e1a05827 	lsr	r5, r7, #16
c108589c:	e1855801 	orr	r5, r5, r1, lsl #16
c10858a0:	e1580005 	cmp	r8, r5
c10858a4:	9a000004 	bls	c10858bc <__divdi3+0x214>
c10858a8:	e0955004 	adds	r5, r5, r4
c10858ac:	e24aa001 	sub	sl, sl, #1
c10858b0:	2a000001 	bcs	c10858bc <__divdi3+0x214>
c10858b4:	e1580005 	cmp	r8, r5
c10858b8:	824aa001 	subhi	sl, sl, #1
c10858bc:	e18aa809 	orr	sl, sl, r9, lsl #16
c10858c0:	e59d700c 	ldr	r7, [sp, #12]
c10858c4:	eaffffbc 	b	c10857bc <__divdi3+0x114>
c10858c8:	e1a00003 	mov	r0, r3
c10858cc:	eb0001a8 	bl	c1085f74 <__clzsi2>
c10858d0:	e2507000 	subs	r7, r0, #0
c10858d4:	0a000086 	beq	c1085af4 <__divdi3+0x44c>
c10858d8:	e2671020 	rsb	r1, r7, #32
c10858dc:	e1a09134 	lsr	r9, r4, r1
c10858e0:	e1a02135 	lsr	r2, r5, r1
c10858e4:	e1898718 	orr	r8, r9, r8, lsl r7
c10858e8:	e1a0a13b 	lsr	sl, fp, r1
c10858ec:	e182e71b 	orr	lr, r2, fp, lsl r7
c10858f0:	e1a09828 	lsr	r9, r8, #16
c10858f4:	e1a01009 	mov	r1, r9
c10858f8:	e1a0000a 	mov	r0, sl
c10858fc:	e58de00c 	str	lr, [sp, #12]
c1085900:	ebfffef1 	bl	c10854cc <__aeabi_uidiv>
c1085904:	e1a01009 	mov	r1, r9
c1085908:	e1a0b000 	mov	fp, r0
c108590c:	e1a0000a 	mov	r0, sl
c1085910:	ebffff2a 	bl	c10855c0 <__aeabi_uidivmod>
c1085914:	e1a00808 	lsl	r0, r8, #16
c1085918:	e1a0a820 	lsr	sl, r0, #16
c108591c:	e0000b9a 	mul	r0, sl, fp
c1085920:	e59dc00c 	ldr	ip, [sp, #12]
c1085924:	e1a0382c 	lsr	r3, ip, #16
c1085928:	e1833801 	orr	r3, r3, r1, lsl #16
c108592c:	e1500003 	cmp	r0, r3
c1085930:	e1a02714 	lsl	r2, r4, r7
c1085934:	9a000002 	bls	c1085944 <__divdi3+0x29c>
c1085938:	e0933008 	adds	r3, r3, r8
c108593c:	e24bb001 	sub	fp, fp, #1
c1085940:	3a000074 	bcc	c1085b18 <__divdi3+0x470>
c1085944:	e0604003 	rsb	r4, r0, r3
c1085948:	e1a01009 	mov	r1, r9
c108594c:	e1a00004 	mov	r0, r4
c1085950:	e98d0014 	stmib	sp, {r2, r4}
c1085954:	ebfffedc 	bl	c10854cc <__aeabi_uidiv>
c1085958:	e59d2008 	ldr	r2, [sp, #8]
c108595c:	e1a04000 	mov	r4, r0
c1085960:	e1a01009 	mov	r1, r9
c1085964:	e1a00002 	mov	r0, r2
c1085968:	ebffff14 	bl	c10855c0 <__aeabi_uidivmod>
c108596c:	e00a0a94 	mul	sl, r4, sl
c1085970:	e59d000c 	ldr	r0, [sp, #12]
c1085974:	e1a0c800 	lsl	ip, r0, #16
c1085978:	e1a0382c 	lsr	r3, ip, #16
c108597c:	e1833801 	orr	r3, r3, r1, lsl #16
c1085980:	e15a0003 	cmp	sl, r3
c1085984:	e59d2004 	ldr	r2, [sp, #4]
c1085988:	9a000002 	bls	c1085998 <__divdi3+0x2f0>
c108598c:	e0933008 	adds	r3, r3, r8
c1085990:	e2444001 	sub	r4, r4, #1
c1085994:	3a00005b 	bcc	c1085b08 <__divdi3+0x460>
c1085998:	e06a1003 	rsb	r1, sl, r3
c108599c:	e184a80b 	orr	sl, r4, fp, lsl #16
c10859a0:	e1a0c82a 	lsr	ip, sl, #16
c10859a4:	e1a0e822 	lsr	lr, r2, #16
c10859a8:	e1ca880c 	bic	r8, sl, ip, lsl #16
c10859ac:	e1c2480e 	bic	r4, r2, lr, lsl #16
c10859b0:	e0000498 	mul	r0, r8, r4
c10859b4:	e004049c 	mul	r4, ip, r4
c10859b8:	e008089e 	mul	r8, lr, r8
c10859bc:	e00e0e9c 	mul	lr, ip, lr
c10859c0:	e0948008 	adds	r8, r4, r8
c10859c4:	228ee801 	addcs	lr, lr, #65536	; 0x10000
c10859c8:	e0900808 	adds	r0, r0, r8, lsl #16
c10859cc:	e0aee828 	adc	lr, lr, r8, lsr #16
c10859d0:	e151000e 	cmp	r1, lr
c10859d4:	3a000006 	bcc	c10859f4 <__divdi3+0x34c>
c10859d8:	13a03000 	movne	r3, #0
c10859dc:	03a03001 	moveq	r3, #1
c10859e0:	e1500715 	cmp	r0, r5, lsl r7
c10859e4:	93a07000 	movls	r7, #0
c10859e8:	82037001 	andhi	r7, r3, #1
c10859ec:	e3570000 	cmp	r7, #0
c10859f0:	0affff71 	beq	c10857bc <__divdi3+0x114>
c10859f4:	e24aa001 	sub	sl, sl, #1
c10859f8:	e3a07000 	mov	r7, #0
c10859fc:	eaffff6e 	b	c10857bc <__divdi3+0x114>
c1085a00:	e2722000 	rsbs	r2, r2, #0
c1085a04:	e2e33000 	rsc	r3, r3, #0
c1085a08:	e1e06006 	mvn	r6, r6
c1085a0c:	eaffff2c 	b	c10856c4 <__divdi3+0x1c>
c1085a10:	e2700000 	rsbs	r0, r0, #0
c1085a14:	e2e11000 	rsc	r1, r1, #0
c1085a18:	e3e06000 	mvn	r6, #0
c1085a1c:	eaffff26 	b	c10856bc <__divdi3+0x14>
c1085a20:	e26a7020 	rsb	r7, sl, #32
c1085a24:	e1a0e735 	lsr	lr, r5, r7
c1085a28:	e1a04a14 	lsl	r4, r4, sl
c1085a2c:	e1a0873b 	lsr	r8, fp, r7
c1085a30:	e18eca1b 	orr	ip, lr, fp, lsl sl
c1085a34:	e1a07824 	lsr	r7, r4, #16
c1085a38:	e1a01007 	mov	r1, r7
c1085a3c:	e1a00008 	mov	r0, r8
c1085a40:	e58dc00c 	str	ip, [sp, #12]
c1085a44:	ebfffea0 	bl	c10854cc <__aeabi_uidiv>
c1085a48:	e1a01007 	mov	r1, r7
c1085a4c:	e1a0b000 	mov	fp, r0
c1085a50:	e1a00008 	mov	r0, r8
c1085a54:	ebfffed9 	bl	c10855c0 <__aeabi_uidivmod>
c1085a58:	e1a02804 	lsl	r2, r4, #16
c1085a5c:	e1a08822 	lsr	r8, r2, #16
c1085a60:	e0020b98 	mul	r2, r8, fp
c1085a64:	e59d900c 	ldr	r9, [sp, #12]
c1085a68:	e1a03829 	lsr	r3, r9, #16
c1085a6c:	e1833801 	orr	r3, r3, r1, lsl #16
c1085a70:	e1520003 	cmp	r2, r3
c1085a74:	9a000002 	bls	c1085a84 <__divdi3+0x3dc>
c1085a78:	e0933004 	adds	r3, r3, r4
c1085a7c:	e24bb001 	sub	fp, fp, #1
c1085a80:	3a000028 	bcc	c1085b28 <__divdi3+0x480>
c1085a84:	e0629003 	rsb	r9, r2, r3
c1085a88:	e1a01007 	mov	r1, r7
c1085a8c:	e1a00009 	mov	r0, r9
c1085a90:	e58d9008 	str	r9, [sp, #8]
c1085a94:	ebfffe8c 	bl	c10854cc <__aeabi_uidiv>
c1085a98:	e59d1008 	ldr	r1, [sp, #8]
c1085a9c:	e1a09000 	mov	r9, r0
c1085aa0:	e1a00001 	mov	r0, r1
c1085aa4:	e1a01007 	mov	r1, r7
c1085aa8:	ebfffec4 	bl	c10855c0 <__aeabi_uidivmod>
c1085aac:	e0020998 	mul	r2, r8, r9
c1085ab0:	e59dc00c 	ldr	ip, [sp, #12]
c1085ab4:	e1a0380c 	lsl	r3, ip, #16
c1085ab8:	e1a00823 	lsr	r0, r3, #16
c1085abc:	e1803801 	orr	r3, r0, r1, lsl #16
c1085ac0:	e1520003 	cmp	r2, r3
c1085ac4:	9a000005 	bls	c1085ae0 <__divdi3+0x438>
c1085ac8:	e0933004 	adds	r3, r3, r4
c1085acc:	e2499001 	sub	r9, r9, #1
c1085ad0:	2a000002 	bcs	c1085ae0 <__divdi3+0x438>
c1085ad4:	e1520003 	cmp	r2, r3
c1085ad8:	82499001 	subhi	r9, r9, #1
c1085adc:	80833004 	addhi	r3, r3, r4
c1085ae0:	e1a05a15 	lsl	r5, r5, sl
c1085ae4:	e062a003 	rsb	sl, r2, r3
c1085ae8:	e189280b 	orr	r2, r9, fp, lsl #16
c1085aec:	e58d200c 	str	r2, [sp, #12]
c1085af0:	eaffff4c 	b	c1085828 <__divdi3+0x180>
c1085af4:	e158000b 	cmp	r8, fp
c1085af8:	21540005 	cmpcs	r4, r5
c1085afc:	93a0a001 	movls	sl, #1
c1085b00:	9affff2d 	bls	c10857bc <__divdi3+0x114>
c1085b04:	eaffff2a 	b	c10857b4 <__divdi3+0x10c>
c1085b08:	e15a0003 	cmp	sl, r3
c1085b0c:	80833008 	addhi	r3, r3, r8
c1085b10:	82444001 	subhi	r4, r4, #1
c1085b14:	eaffff9f 	b	c1085998 <__divdi3+0x2f0>
c1085b18:	e1500003 	cmp	r0, r3
c1085b1c:	824bb001 	subhi	fp, fp, #1
c1085b20:	80833008 	addhi	r3, r3, r8
c1085b24:	eaffff86 	b	c1085944 <__divdi3+0x29c>
c1085b28:	e1520003 	cmp	r2, r3
c1085b2c:	824bb001 	subhi	fp, fp, #1
c1085b30:	80833004 	addhi	r3, r3, r4
c1085b34:	eaffffd2 	b	c1085a84 <__divdi3+0x3dc>

c1085b38 <__udivdi3>:
c1085b38:	e92d4ff0 	push	{r4, r5, r6, r7, r8, r9, sl, fp, lr}
c1085b3c:	e3530000 	cmp	r3, #0
c1085b40:	e24dd00c 	sub	sp, sp, #12
c1085b44:	e1a04001 	mov	r4, r1
c1085b48:	e1a07003 	mov	r7, r3
c1085b4c:	e1a05000 	mov	r5, r0
c1085b50:	e1a0b002 	mov	fp, r2
c1085b54:	e1a06002 	mov	r6, r2
c1085b58:	e1a08001 	mov	r8, r1
c1085b5c:	1a000034 	bne	c1085c34 <__udivdi3+0xfc>
c1085b60:	e1520001 	cmp	r2, r1
c1085b64:	9a000081 	bls	c1085d70 <__udivdi3+0x238>
c1085b68:	e1a00002 	mov	r0, r2
c1085b6c:	eb000100 	bl	c1085f74 <__clzsi2>
c1085b70:	e3500000 	cmp	r0, #0
c1085b74:	12603020 	rsbne	r3, r0, #32
c1085b78:	11a03335 	lsrne	r3, r5, r3
c1085b7c:	11a0601b 	lslne	r6, fp, r0
c1085b80:	11838014 	orrne	r8, r3, r4, lsl r0
c1085b84:	e1a07826 	lsr	r7, r6, #16
c1085b88:	11a05015 	lslne	r5, r5, r0
c1085b8c:	e1a01007 	mov	r1, r7
c1085b90:	e1a00008 	mov	r0, r8
c1085b94:	ebfffe4c 	bl	c10854cc <__aeabi_uidiv>
c1085b98:	e1a01007 	mov	r1, r7
c1085b9c:	e1a0a000 	mov	sl, r0
c1085ba0:	e1a00008 	mov	r0, r8
c1085ba4:	ebfffe85 	bl	c10855c0 <__aeabi_uidivmod>
c1085ba8:	e1a04806 	lsl	r4, r6, #16
c1085bac:	e1a04824 	lsr	r4, r4, #16
c1085bb0:	e0030a94 	mul	r3, r4, sl
c1085bb4:	e1a09825 	lsr	r9, r5, #16
c1085bb8:	e1899801 	orr	r9, r9, r1, lsl #16
c1085bbc:	e1530009 	cmp	r3, r9
c1085bc0:	9a000005 	bls	c1085bdc <__udivdi3+0xa4>
c1085bc4:	e0999006 	adds	r9, r9, r6
c1085bc8:	e24aa001 	sub	sl, sl, #1
c1085bcc:	2a000002 	bcs	c1085bdc <__udivdi3+0xa4>
c1085bd0:	e1530009 	cmp	r3, r9
c1085bd4:	824aa001 	subhi	sl, sl, #1
c1085bd8:	80899006 	addhi	r9, r9, r6
c1085bdc:	e0639009 	rsb	r9, r3, r9
c1085be0:	e1a01007 	mov	r1, r7
c1085be4:	e1a00009 	mov	r0, r9
c1085be8:	ebfffe37 	bl	c10854cc <__aeabi_uidiv>
c1085bec:	e1a01007 	mov	r1, r7
c1085bf0:	e1a08000 	mov	r8, r0
c1085bf4:	e1a00009 	mov	r0, r9
c1085bf8:	ebfffe70 	bl	c10855c0 <__aeabi_uidivmod>
c1085bfc:	e0040498 	mul	r4, r8, r4
c1085c00:	e1a03805 	lsl	r3, r5, #16
c1085c04:	e1a02823 	lsr	r2, r3, #16
c1085c08:	e1825801 	orr	r5, r2, r1, lsl #16
c1085c0c:	e1540005 	cmp	r4, r5
c1085c10:	9a000004 	bls	c1085c28 <__udivdi3+0xf0>
c1085c14:	e0955006 	adds	r5, r5, r6
c1085c18:	e2488001 	sub	r8, r8, #1
c1085c1c:	2a000001 	bcs	c1085c28 <__udivdi3+0xf0>
c1085c20:	e1540005 	cmp	r4, r5
c1085c24:	82488001 	subhi	r8, r8, #1
c1085c28:	e188a80a 	orr	sl, r8, sl, lsl #16
c1085c2c:	e3a01000 	mov	r1, #0
c1085c30:	ea00008c 	b	c1085e68 <__udivdi3+0x330>
c1085c34:	e1530001 	cmp	r3, r1
c1085c38:	8a000088 	bhi	c1085e60 <__udivdi3+0x328>
c1085c3c:	e1a00003 	mov	r0, r3
c1085c40:	eb0000cb 	bl	c1085f74 <__clzsi2>
c1085c44:	e250b000 	subs	fp, r0, #0
c1085c48:	0a00007f 	beq	c1085e4c <__udivdi3+0x314>
c1085c4c:	e26b8020 	rsb	r8, fp, #32
c1085c50:	e1a01836 	lsr	r1, r6, r8
c1085c54:	e1a0e835 	lsr	lr, r5, r8
c1085c58:	e1817b17 	orr	r7, r1, r7, lsl fp
c1085c5c:	e1a09834 	lsr	r9, r4, r8
c1085c60:	e18eab14 	orr	sl, lr, r4, lsl fp
c1085c64:	e1a08827 	lsr	r8, r7, #16
c1085c68:	e1a01008 	mov	r1, r8
c1085c6c:	e1a00009 	mov	r0, r9
c1085c70:	e58da004 	str	sl, [sp, #4]
c1085c74:	ebfffe14 	bl	c10854cc <__aeabi_uidiv>
c1085c78:	e1a01008 	mov	r1, r8
c1085c7c:	e1a0a000 	mov	sl, r0
c1085c80:	e1a00009 	mov	r0, r9
c1085c84:	ebfffe4d 	bl	c10855c0 <__aeabi_uidivmod>
c1085c88:	e1a0c807 	lsl	ip, r7, #16
c1085c8c:	e1a0482c 	lsr	r4, ip, #16
c1085c90:	e0020a94 	mul	r2, r4, sl
c1085c94:	e59d3004 	ldr	r3, [sp, #4]
c1085c98:	e1a09823 	lsr	r9, r3, #16
c1085c9c:	e1899801 	orr	r9, r9, r1, lsl #16
c1085ca0:	e1520009 	cmp	r2, r9
c1085ca4:	e1a03b16 	lsl	r3, r6, fp
c1085ca8:	9a000002 	bls	c1085cb8 <__udivdi3+0x180>
c1085cac:	e0999007 	adds	r9, r9, r7
c1085cb0:	e24aa001 	sub	sl, sl, #1
c1085cb4:	3a0000a6 	bcc	c1085f54 <__udivdi3+0x41c>
c1085cb8:	e0629009 	rsb	r9, r2, r9
c1085cbc:	e1a01008 	mov	r1, r8
c1085cc0:	e1a00009 	mov	r0, r9
c1085cc4:	e58d3000 	str	r3, [sp]
c1085cc8:	ebfffdff 	bl	c10854cc <__aeabi_uidiv>
c1085ccc:	e1a01008 	mov	r1, r8
c1085cd0:	e1a06000 	mov	r6, r0
c1085cd4:	e1a00009 	mov	r0, r9
c1085cd8:	ebfffe38 	bl	c10855c0 <__aeabi_uidivmod>
c1085cdc:	e0040496 	mul	r4, r6, r4
c1085ce0:	e59d3004 	ldr	r3, [sp, #4]
c1085ce4:	e1a00803 	lsl	r0, r3, #16
c1085ce8:	e1a02820 	lsr	r2, r0, #16
c1085cec:	e1822801 	orr	r2, r2, r1, lsl #16
c1085cf0:	e1540002 	cmp	r4, r2
c1085cf4:	e59d3000 	ldr	r3, [sp]
c1085cf8:	9a000002 	bls	c1085d08 <__udivdi3+0x1d0>
c1085cfc:	e0922007 	adds	r2, r2, r7
c1085d00:	e2466001 	sub	r6, r6, #1
c1085d04:	3a00008e 	bcc	c1085f44 <__udivdi3+0x40c>
c1085d08:	e0644002 	rsb	r4, r4, r2
c1085d0c:	e186a80a 	orr	sl, r6, sl, lsl #16
c1085d10:	e1a0082a 	lsr	r0, sl, #16
c1085d14:	e1a0e823 	lsr	lr, r3, #16
c1085d18:	e1cac800 	bic	ip, sl, r0, lsl #16
c1085d1c:	e1c3680e 	bic	r6, r3, lr, lsl #16
c1085d20:	e002069c 	mul	r2, ip, r6
c1085d24:	e0060690 	mul	r6, r0, r6
c1085d28:	e00c0c9e 	mul	ip, lr, ip
c1085d2c:	e00e0e90 	mul	lr, r0, lr
c1085d30:	e096c00c 	adds	ip, r6, ip
c1085d34:	228ee801 	addcs	lr, lr, #65536	; 0x10000
c1085d38:	e092280c 	adds	r2, r2, ip, lsl #16
c1085d3c:	e0aee82c 	adc	lr, lr, ip, lsr #16
c1085d40:	e154000e 	cmp	r4, lr
c1085d44:	3a000006 	bcc	c1085d64 <__udivdi3+0x22c>
c1085d48:	13a0c000 	movne	ip, #0
c1085d4c:	03a0c001 	moveq	ip, #1
c1085d50:	e1520b15 	cmp	r2, r5, lsl fp
c1085d54:	93a01000 	movls	r1, #0
c1085d58:	820c1001 	andhi	r1, ip, #1
c1085d5c:	e3510000 	cmp	r1, #0
c1085d60:	0a000040 	beq	c1085e68 <__udivdi3+0x330>
c1085d64:	e24aa001 	sub	sl, sl, #1
c1085d68:	e3a01000 	mov	r1, #0
c1085d6c:	ea00003d 	b	c1085e68 <__udivdi3+0x330>
c1085d70:	e3520000 	cmp	r2, #0
c1085d74:	1a000003 	bne	c1085d88 <__udivdi3+0x250>
c1085d78:	e1a01002 	mov	r1, r2
c1085d7c:	e3a00001 	mov	r0, #1
c1085d80:	ebfffdd1 	bl	c10854cc <__aeabi_uidiv>
c1085d84:	e1a06000 	mov	r6, r0
c1085d88:	e1a00006 	mov	r0, r6
c1085d8c:	eb000078 	bl	c1085f74 <__clzsi2>
c1085d90:	e250a000 	subs	sl, r0, #0
c1085d94:	1a000038 	bne	c1085e7c <__udivdi3+0x344>
c1085d98:	e1a08806 	lsl	r8, r6, #16
c1085d9c:	e0664004 	rsb	r4, r6, r4
c1085da0:	e1a08828 	lsr	r8, r8, #16
c1085da4:	e1a07826 	lsr	r7, r6, #16
c1085da8:	e3a0b001 	mov	fp, #1
c1085dac:	e1a01007 	mov	r1, r7
c1085db0:	e1a00004 	mov	r0, r4
c1085db4:	ebfffdc4 	bl	c10854cc <__aeabi_uidiv>
c1085db8:	e1a01007 	mov	r1, r7
c1085dbc:	e1a0a000 	mov	sl, r0
c1085dc0:	e1a00004 	mov	r0, r4
c1085dc4:	ebfffdfd 	bl	c10855c0 <__aeabi_uidivmod>
c1085dc8:	e0030a98 	mul	r3, r8, sl
c1085dcc:	e1a02825 	lsr	r2, r5, #16
c1085dd0:	e1829801 	orr	r9, r2, r1, lsl #16
c1085dd4:	e1530009 	cmp	r3, r9
c1085dd8:	9a000005 	bls	c1085df4 <__udivdi3+0x2bc>
c1085ddc:	e0999006 	adds	r9, r9, r6
c1085de0:	e24aa001 	sub	sl, sl, #1
c1085de4:	2a000002 	bcs	c1085df4 <__udivdi3+0x2bc>
c1085de8:	e1530009 	cmp	r3, r9
c1085dec:	824aa001 	subhi	sl, sl, #1
c1085df0:	80899006 	addhi	r9, r9, r6
c1085df4:	e0639009 	rsb	r9, r3, r9
c1085df8:	e1a01007 	mov	r1, r7
c1085dfc:	e1a00009 	mov	r0, r9
c1085e00:	ebfffdb1 	bl	c10854cc <__aeabi_uidiv>
c1085e04:	e1a01007 	mov	r1, r7
c1085e08:	e1a04000 	mov	r4, r0
c1085e0c:	e1a00009 	mov	r0, r9
c1085e10:	ebfffdea 	bl	c10855c0 <__aeabi_uidivmod>
c1085e14:	e0080894 	mul	r8, r4, r8
c1085e18:	e1a00805 	lsl	r0, r5, #16
c1085e1c:	e1a05820 	lsr	r5, r0, #16
c1085e20:	e1855801 	orr	r5, r5, r1, lsl #16
c1085e24:	e1580005 	cmp	r8, r5
c1085e28:	9a000004 	bls	c1085e40 <__udivdi3+0x308>
c1085e2c:	e0955006 	adds	r5, r5, r6
c1085e30:	e2444001 	sub	r4, r4, #1
c1085e34:	2a000001 	bcs	c1085e40 <__udivdi3+0x308>
c1085e38:	e1580005 	cmp	r8, r5
c1085e3c:	82444001 	subhi	r4, r4, #1
c1085e40:	e184a80a 	orr	sl, r4, sl, lsl #16
c1085e44:	e1a0100b 	mov	r1, fp
c1085e48:	ea000006 	b	c1085e68 <__udivdi3+0x330>
c1085e4c:	e1570004 	cmp	r7, r4
c1085e50:	21560005 	cmpcs	r6, r5
c1085e54:	91a0100b 	movls	r1, fp
c1085e58:	93a0a001 	movls	sl, #1
c1085e5c:	9a000001 	bls	c1085e68 <__udivdi3+0x330>
c1085e60:	e3a01000 	mov	r1, #0
c1085e64:	e1a0a001 	mov	sl, r1
c1085e68:	e1a04001 	mov	r4, r1
c1085e6c:	e1a0000a 	mov	r0, sl
c1085e70:	e28dd00c 	add	sp, sp, #12
c1085e74:	e8bd4ff0 	pop	{r4, r5, r6, r7, r8, r9, sl, fp, lr}
c1085e78:	e12fff1e 	bx	lr
c1085e7c:	e26a1020 	rsb	r1, sl, #32
c1085e80:	e1a0e135 	lsr	lr, r5, r1
c1085e84:	e1a06a16 	lsl	r6, r6, sl
c1085e88:	e1a08134 	lsr	r8, r4, r1
c1085e8c:	e18eba14 	orr	fp, lr, r4, lsl sl
c1085e90:	e1a07826 	lsr	r7, r6, #16
c1085e94:	e1a01007 	mov	r1, r7
c1085e98:	e1a00008 	mov	r0, r8
c1085e9c:	e58db004 	str	fp, [sp, #4]
c1085ea0:	ebfffd89 	bl	c10854cc <__aeabi_uidiv>
c1085ea4:	e1a01007 	mov	r1, r7
c1085ea8:	e1a0b000 	mov	fp, r0
c1085eac:	e1a00008 	mov	r0, r8
c1085eb0:	ebfffdc2 	bl	c10855c0 <__aeabi_uidivmod>
c1085eb4:	e1a09806 	lsl	r9, r6, #16
c1085eb8:	e1a08829 	lsr	r8, r9, #16
c1085ebc:	e0030b98 	mul	r3, r8, fp
c1085ec0:	e59d0004 	ldr	r0, [sp, #4]
c1085ec4:	e1a0c820 	lsr	ip, r0, #16
c1085ec8:	e18c4801 	orr	r4, ip, r1, lsl #16
c1085ecc:	e1530004 	cmp	r3, r4
c1085ed0:	9a000002 	bls	c1085ee0 <__udivdi3+0x3a8>
c1085ed4:	e0944006 	adds	r4, r4, r6
c1085ed8:	e24bb001 	sub	fp, fp, #1
c1085edc:	3a000020 	bcc	c1085f64 <__udivdi3+0x42c>
c1085ee0:	e0634004 	rsb	r4, r3, r4
c1085ee4:	e1a01007 	mov	r1, r7
c1085ee8:	e1a00004 	mov	r0, r4
c1085eec:	ebfffd76 	bl	c10854cc <__aeabi_uidiv>
c1085ef0:	e1a01007 	mov	r1, r7
c1085ef4:	e1a09000 	mov	r9, r0
c1085ef8:	e1a00004 	mov	r0, r4
c1085efc:	ebfffdaf 	bl	c10855c0 <__aeabi_uidivmod>
c1085f00:	e0020998 	mul	r2, r8, r9
c1085f04:	e59dc004 	ldr	ip, [sp, #4]
c1085f08:	e1a0480c 	lsl	r4, ip, #16
c1085f0c:	e1a03824 	lsr	r3, r4, #16
c1085f10:	e1834801 	orr	r4, r3, r1, lsl #16
c1085f14:	e1520004 	cmp	r2, r4
c1085f18:	9a000005 	bls	c1085f34 <__udivdi3+0x3fc>
c1085f1c:	e0944006 	adds	r4, r4, r6
c1085f20:	e2499001 	sub	r9, r9, #1
c1085f24:	2a000002 	bcs	c1085f34 <__udivdi3+0x3fc>
c1085f28:	e1520004 	cmp	r2, r4
c1085f2c:	82499001 	subhi	r9, r9, #1
c1085f30:	80844006 	addhi	r4, r4, r6
c1085f34:	e1a05a15 	lsl	r5, r5, sl
c1085f38:	e0624004 	rsb	r4, r2, r4
c1085f3c:	e189b80b 	orr	fp, r9, fp, lsl #16
c1085f40:	eaffff99 	b	c1085dac <__udivdi3+0x274>
c1085f44:	e1540002 	cmp	r4, r2
c1085f48:	80822007 	addhi	r2, r2, r7
c1085f4c:	82466001 	subhi	r6, r6, #1
c1085f50:	eaffff6c 	b	c1085d08 <__udivdi3+0x1d0>
c1085f54:	e1520009 	cmp	r2, r9
c1085f58:	824aa001 	subhi	sl, sl, #1
c1085f5c:	80899007 	addhi	r9, r9, r7
c1085f60:	eaffff54 	b	c1085cb8 <__udivdi3+0x180>
c1085f64:	e1530004 	cmp	r3, r4
c1085f68:	824bb001 	subhi	fp, fp, #1
c1085f6c:	80844006 	addhi	r4, r4, r6
c1085f70:	eaffffda 	b	c1085ee0 <__udivdi3+0x3a8>

c1085f74 <__clzsi2>:
c1085f74:	e3a0101c 	mov	r1, #28
c1085f78:	e3500801 	cmp	r0, #65536	; 0x10000
c1085f7c:	21a00820 	lsrcs	r0, r0, #16
c1085f80:	22411010 	subcs	r1, r1, #16
c1085f84:	e3500c01 	cmp	r0, #256	; 0x100
c1085f88:	21a00420 	lsrcs	r0, r0, #8
c1085f8c:	22411008 	subcs	r1, r1, #8
c1085f90:	e3500010 	cmp	r0, #16
c1085f94:	21a00220 	lsrcs	r0, r0, #4
c1085f98:	22411004 	subcs	r1, r1, #4
c1085f9c:	e28f2008 	add	r2, pc, #8
c1085fa0:	e7d20000 	ldrb	r0, [r2, r0]
c1085fa4:	e0800001 	add	r0, r0, r1
c1085fa8:	e12fff1e 	bx	lr
c1085fac:	02020304 	.word	0x02020304
c1085fb0:	01010101 	.word	0x01010101
	...
